(lp1
(lp2
(lp3
F0.51083817181733959
aF0.1792208332297707
aa(lp4
F0.51083817181733959
aF0.1792208332297707
aa(lp5
F0.51083817181733959
aF0.1792208332297707
aa(lp6
F0.51083817181733959
aF0.1792208332297707
aa(lp7
F0.51083817181733959
aF0.1792208332297707
aa(lp8
F0.51083817181733959
aF0.1792208332297707
aa(lp9
F0.51083817181733959
aF0.1792208332297707
aa(lp10
F0.51083817181733959
aF0.1792208332297707
aa(lp11
F0.51083817181733959
aF0.1792208332297707
aa(lp12
F0.49760601661845355
aF0.16789830622832413
aa(lp13
F0.49760601661845355
aF0.16789830622832413
aa(lp14
F0.49760601661845355
aF0.16789830622832413
aa(lp15
F0.49760601661845355
aF0.16789830622832413
aa(lp16
F0.49760601661845355
aF0.16789830622832413
aa(lp17
F0.49760601661845355
aF0.16789830622832413
aa(lp18
F0.49760601661845355
aF0.16789830622832413
aa(lp19
F0.49760601661845355
aF0.16789830622832413
aa(lp20
F0.49760601661845355
aF0.16789830622832413
aa(lp21
F0.49760601661845355
aF0.16789830622832413
aa(lp22
F0.49760601661845355
aF0.16789830622832413
aa(lp23
F0.49760601661845355
aF0.16789830622832413
aa(lp24
F0.49760601661845355
aF0.16789830622832413
aa(lp25
F0.49760601661845355
aF0.16789830622832413
aa(lp26
F0.49760601661845355
aF0.16789830622832413
aa(lp27
F0.49760601661845355
aF0.16789830622832413
aa(lp28
F0.49760601661845355
aF0.16789830622832413
aa(lp29
F0.49760601661845355
aF0.16789830622832413
aa(lp30
F0.49760601661845355
aF0.16789830622832413
aa(lp31
F0.49760601661845355
aF0.16789830622832413
aa(lp32
F0.49760601661845355
aF0.16789830622832413
aaa(lp33
(lp34
F-0.46274028805333989
aF0.33698325422537762
aa(lp35
F-0.46274028805333989
aF0.33698325422537762
aa(lp36
F-0.46274028805333989
aF0.33698325422537762
aa(lp37
F-0.46274028805333989
aF0.33698325422537762
aa(lp38
F-0.46274028805333989
aF0.33698325422537762
aa(lp39
F-0.46274028805333989
aF0.33698325422537762
aa(lp40
F-0.46274028805333989
aF0.33698325422537762
aa(lp41
F-0.46121313669922137
aF0.31780540228660342
aa(lp42
F-0.45179699352792102
aF0.26536868366093358
aa(lp43
F-0.45179699352792102
aF0.26536868366093358
aa(lp44
F-0.45179699352792102
aF0.26536868366093358
aa(lp45
F-0.41453108181549431
aF0.32997184895341586
aa(lp46
F-0.41453108181549431
aF0.32997184895341586
aa(lp47
F-0.41453108181549431
aF0.32997184895341586
aa(lp48
F-0.41453108181549431
aF0.32997184895341586
aa(lp49
F-0.41453108181549431
aF0.32997184895341586
aa(lp50
F-0.41453108181549431
aF0.32997184895341586
aa(lp51
F-0.20078797005997934
aF0.31051412650250099
aa(lp52
F-0.20078797005997934
aF0.31051412650250099
aa(lp53
F-0.20078797005997934
aF0.31051412650250099
aa(lp54
F-0.20078797005997934
aF0.31051412650250099
aa(lp55
F-0.20078797005997934
aF0.31051412650250099
aa(lp56
F-0.20078797005997934
aF0.31051412650250099
aa(lp57
F-0.20078797005997934
aF0.31051412650250099
aa(lp58
F-0.20078797005997934
aF0.31051412650250099
aa(lp59
F-0.20078797005997934
aF0.31051412650250099
aa(lp60
F-0.20078797005997934
aF0.31051412650250099
aa(lp61
F-0.20078797005997934
aF0.31051412650250099
aa(lp62
F-0.20078797005997934
aF0.31051412650250099
aa(lp63
F-0.20078797005997934
aF0.31051412650250099
aaa(lp64
(lp65
F0.42502452567871929
aF-0.41745488560752353
aa(lp66
F0.42502452567871929
aF-0.41745488560752353
aa(lp67
F0.42502452567871929
aF-0.41745488560752353
aa(lp68
F0.42502452567871929
aF-0.41745488560752353
aa(lp69
F0.42384675854813841
aF-0.43689452480372226
aa(lp70
F0.42384675854813841
aF-0.43689452480372226
aa(lp71
F0.42384675854813841
aF-0.43689452480372226
aa(lp72
F0.42384675854813841
aF-0.43689452480372226
aa(lp73
F0.42384675854813841
aF-0.43689452480372226
aa(lp74
F0.42384675854813841
aF-0.43689452480372226
aa(lp75
F0.42384675854813841
aF-0.43689452480372226
aa(lp76
F0.42384675854813841
aF-0.43689452480372226
aa(lp77
F0.42384675854813841
aF-0.43689452480372226
aa(lp78
F0.42384675854813841
aF-0.43689452480372226
aa(lp79
F0.42384675854813841
aF-0.43689452480372226
aa(lp80
F0.42384675854813841
aF-0.43689452480372226
aa(lp81
F0.42384675854813841
aF-0.43689452480372226
aa(lp82
F0.42384675854813841
aF-0.43689452480372226
aa(lp83
F0.42384675854813841
aF-0.43689452480372226
aa(lp84
F0.42384675854813841
aF-0.43689452480372226
aa(lp85
F0.42384675854813841
aF-0.43689452480372226
aa(lp86
F0.42384675854813841
aF-0.43689452480372226
aa(lp87
F0.42384675854813841
aF-0.43689452480372226
aa(lp88
F0.42384675854813841
aF-0.43689452480372226
aa(lp89
F0.42384675854813841
aF-0.43689452480372226
aa(lp90
F0.42384675854813841
aF-0.43689452480372226
aa(lp91
F0.42384675854813841
aF-0.43689452480372226
aa(lp92
F0.42384675854813841
aF-0.43689452480372226
aa(lp93
F0.42384675854813841
aF-0.43689452480372226
aa(lp94
F0.42384675854813841
aF-0.43689452480372226
aaa(lp95
(lp96
F-0.3350937813934578
aF-0.31376207460140731
aa(lp97
F-0.3350937813934578
aF-0.31376207460140731
aa(lp98
F-0.3350937813934578
aF-0.31376207460140731
aa(lp99
F-0.3350937813934578
aF-0.31376207460140731
aa(lp100
F-0.37249378686507234
aF-0.1485112204151052
aa(lp101
F-0.37249378686507234
aF-0.1485112204151052
aa(lp102
F-0.37249378686507234
aF-0.1485112204151052
aa(lp103
F-0.37249378686507234
aF-0.1485112204151052
aa(lp104
F-0.37249378686507234
aF-0.1485112204151052
aa(lp105
F-0.37249378686507234
aF-0.1485112204151052
aa(lp106
F-0.37249378686507234
aF-0.1485112204151052
aa(lp107
F-0.37249378686507234
aF-0.1485112204151052
aa(lp108
F-0.37249378686507234
aF-0.1485112204151052
aa(lp109
F-0.37249378686507234
aF-0.1485112204151052
aa(lp110
F-0.37249378686507234
aF-0.1485112204151052
aa(lp111
F-0.37249378686507234
aF-0.1485112204151052
aa(lp112
F-0.37249378686507234
aF-0.1485112204151052
aa(lp113
F-0.37249378686507234
aF-0.1485112204151052
aa(lp114
F-0.37249378686507234
aF-0.1485112204151052
aa(lp115
F-0.37249378686507234
aF-0.1485112204151052
aa(lp116
F-0.37249378686507234
aF-0.1485112204151052
aa(lp117
F-0.37249378686507234
aF-0.1485112204151052
aa(lp118
F-0.37249378686507234
aF-0.1485112204151052
aa(lp119
F-0.37249378686507234
aF-0.1485112204151052
aa(lp120
F-0.37249378686507234
aF-0.1485112204151052
aa(lp121
F-0.37249378686507234
aF-0.1485112204151052
aa(lp122
F-0.37249378686507234
aF-0.1485112204151052
aa(lp123
F-0.37249378686507234
aF-0.1485112204151052
aa(lp124
F-0.37249378686507234
aF-0.1485112204151052
aa(lp125
F-0.37249378686507234
aF-0.1485112204151052
aaa(lp126
(lp127
F-0.022923254361167784
aF-0.50604300324478801
aa(lp128
F-0.022923254361167784
aF-0.50604300324478801
aa(lp129
F-0.022923254361167784
aF-0.50604300324478801
aa(lp130
F-0.022923254361167784
aF-0.50604300324478801
aa(lp131
F-0.022923254361167784
aF-0.50604300324478801
aa(lp132
F-0.022923254361167784
aF-0.50604300324478801
aa(lp133
F-0.022923254361167784
aF-0.50604300324478801
aa(lp134
F-0.022923254361167784
aF-0.50604300324478801
aa(lp135
F-0.022923254361167784
aF-0.50604300324478801
aa(lp136
F-0.022923254361167784
aF-0.50604300324478801
aa(lp137
F0.0076290670169174256
aF-0.53771440212796096
aa(lp138
F0.0076290670169174256
aF-0.53771440212796096
aa(lp139
F0.0076290670169174256
aF-0.53771440212796096
aa(lp140
F0.0076290670169174256
aF-0.53771440212796096
aa(lp141
F0.0076290670169174256
aF-0.53771440212796096
aa(lp142
F0.0076290670169174256
aF-0.53771440212796096
aa(lp143
F0.0076290670169174256
aF-0.53771440212796096
aa(lp144
F0.0076290670169174256
aF-0.53771440212796096
aa(lp145
F0.0076290670169174256
aF-0.53771440212796096
aa(lp146
F0.0076290670169174256
aF-0.53771440212796096
aa(lp147
F0.0076290670169174256
aF-0.53771440212796096
aa(lp148
F0.0076290670169174256
aF-0.53771440212796096
aa(lp149
F0.0076290670169174256
aF-0.53771440212796096
aa(lp150
F0.0076290670169174256
aF-0.53771440212796096
aa(lp151
F0.0076290670169174256
aF-0.53771440212796096
aa(lp152
F0.0076290670169174256
aF-0.53771440212796096
aa(lp153
F0.0076290670169174256
aF-0.53771440212796096
aa(lp154
F0.0076290670169174256
aF-0.53771440212796096
aa(lp155
F0.0076290670169174256
aF-0.53771440212796096
aa(lp156
F0.0076290670169174256
aF-0.53771440212796096
aaa.