(lp1
(lp2
(lp3
F0.51083817181733959
aF0.1792208332297707
aa(lp4
F0.51083817181733959
aF0.1792208332297707
aa(lp5
F0.51083817181733959
aF0.1792208332297707
aa(lp6
F0.51083817181733959
aF0.1792208332297707
aa(lp7
F0.51083817181733959
aF0.1792208332297707
aa(lp8
F0.51083817181733959
aF0.1792208332297707
aa(lp9
F0.51083817181733959
aF0.1792208332297707
aa(lp10
F0.51083817181733959
aF0.1792208332297707
aa(lp11
F0.51083817181733959
aF0.1792208332297707
aa(lp12
F0.49760601661845355
aF0.16789830622832413
aa(lp13
F0.49760601661845355
aF0.16789830622832413
aa(lp14
F0.49760601661845355
aF0.16789830622832413
aa(lp15
F0.49760601661845355
aF0.16789830622832413
aa(lp16
F0.49760601661845355
aF0.16789830622832413
aa(lp17
F0.49760601661845355
aF0.16789830622832413
aa(lp18
F0.49760601661845355
aF0.16789830622832413
aa(lp19
F0.49760601661845355
aF0.16789830622832413
aa(lp20
F0.49760601661845355
aF0.16789830622832413
aa(lp21
F0.49760601661845355
aF0.16789830622832413
aa(lp22
F0.49760601661845355
aF0.16789830622832413
aa(lp23
F0.49760601661845355
aF0.16789830622832413
aa(lp24
F0.49760601661845355
aF0.16789830622832413
aa(lp25
F0.49760601661845355
aF0.16789830622832413
aa(lp26
F0.49760601661845355
aF0.16789830622832413
aa(lp27
F0.49760601661845355
aF0.16789830622832413
aa(lp28
F0.49760601661845355
aF0.16789830622832413
aa(lp29
F0.49760601661845355
aF0.16789830622832413
aa(lp30
F0.49760601661845355
aF0.16789830622832413
aa(lp31
F0.49760601661845355
aF0.16789830622832413
aa(lp32
F0.49760601661845355
aF0.16789830622832413
aa(lp33
F0.49760601661845355
aF0.16789830622832413
aa(lp34
F0.49760601661845355
aF0.16789830622832413
aa(lp35
F0.49760601661845355
aF0.16789830622832413
aa(lp36
F0.49760601661845355
aF0.16789830622832413
aa(lp37
F0.49760601661845355
aF0.16789830622832413
aa(lp38
F0.49760601661845355
aF0.16789830622832413
aa(lp39
F0.49760601661845355
aF0.16789830622832413
aa(lp40
F0.49760601661845355
aF0.16789830622832413
aa(lp41
F0.49760601661845355
aF0.16789830622832413
aa(lp42
F0.49760601661845355
aF0.16789830622832413
aa(lp43
F0.49760601661845355
aF0.16789830622832413
aa(lp44
F0.49760601661845355
aF0.16789830622832413
aa(lp45
F0.49760601661845355
aF0.16789830622832413
aa(lp46
F0.49760601661845355
aF0.16789830622832413
aa(lp47
F0.49760601661845355
aF0.16789830622832413
aa(lp48
F0.49760601661845355
aF0.16789830622832413
aa(lp49
F0.49760601661845355
aF0.16789830622832413
aa(lp50
F0.49760601661845355
aF0.16789830622832413
aa(lp51
F0.49760601661845355
aF0.16789830622832413
aa(lp52
F0.49760601661845355
aF0.16789830622832413
aa(lp53
F0.49760601661845355
aF0.16789830622832413
aa(lp54
F0.49760601661845355
aF0.16789830622832413
aa(lp55
F0.49760601661845355
aF0.16789830622832413
aa(lp56
F0.49760601661845355
aF0.16789830622832413
aa(lp57
F0.49760601661845355
aF0.16789830622832413
aa(lp58
F0.49760601661845355
aF0.16789830622832413
aa(lp59
F0.49760601661845355
aF0.16789830622832413
aa(lp60
F0.49760601661845355
aF0.16789830622832413
aa(lp61
F0.49760601661845355
aF0.16789830622832413
aa(lp62
F0.49760601661845355
aF0.16789830622832413
aa(lp63
F0.49760601661845355
aF0.16789830622832413
aa(lp64
F0.49760601661845355
aF0.16789830622832413
aa(lp65
F0.49760601661845355
aF0.16789830622832413
aa(lp66
F0.49760601661845355
aF0.16789830622832413
aa(lp67
F0.49760601661845355
aF0.16789830622832413
aa(lp68
F0.49760601661845355
aF0.16789830622832413
aa(lp69
F0.49760601661845355
aF0.16789830622832413
aa(lp70
F0.49760601661845355
aF0.16789830622832413
aa(lp71
F0.49760601661845355
aF0.16789830622832413
aa(lp72
F0.49760601661845355
aF0.16789830622832413
aa(lp73
F0.49760601661845355
aF0.16789830622832413
aa(lp74
F0.49760601661845355
aF0.16789830622832413
aa(lp75
F0.49760601661845355
aF0.16789830622832413
aa(lp76
F0.49760601661845355
aF0.16789830622832413
aa(lp77
F0.49760601661845355
aF0.16789830622832413
aa(lp78
F0.49760601661845355
aF0.16789830622832413
aa(lp79
F0.49760601661845355
aF0.16789830622832413
aa(lp80
F0.49760601661845355
aF0.16789830622832413
aa(lp81
F0.49760601661845355
aF0.16789830622832413
aa(lp82
F0.49760601661845355
aF0.16789830622832413
aa(lp83
F0.49760601661845355
aF0.16789830622832413
aa(lp84
F0.49760601661845355
aF0.16789830622832413
aa(lp85
F0.49760601661845355
aF0.16789830622832413
aa(lp86
F0.49760601661845355
aF0.16789830622832413
aa(lp87
F0.49760601661845355
aF0.16789830622832413
aa(lp88
F0.49760601661845355
aF0.16789830622832413
aa(lp89
F0.49760601661845355
aF0.16789830622832413
aa(lp90
F0.49760601661845355
aF0.16789830622832413
aa(lp91
F0.49760601661845355
aF0.16789830622832413
aa(lp92
F0.49760601661845355
aF0.16789830622832413
aa(lp93
F0.49760601661845355
aF0.16789830622832413
aa(lp94
F0.49760601661845355
aF0.16789830622832413
aa(lp95
F0.49760601661845355
aF0.16789830622832413
aa(lp96
F0.49760601661845355
aF0.16789830622832413
aa(lp97
F0.49760601661845355
aF0.16789830622832413
aa(lp98
F0.49760601661845355
aF0.16789830622832413
aa(lp99
F0.49760601661845355
aF0.16789830622832413
aa(lp100
F0.49760601661845355
aF0.16789830622832413
aa(lp101
F0.49760601661845355
aF0.16789830622832413
aa(lp102
F0.49760601661845355
aF0.16789830622832413
aaa(lp103
(lp104
F-0.46274028805333989
aF0.33698325422537762
aa(lp105
F-0.46274028805333989
aF0.33698325422537762
aa(lp106
F-0.46274028805333989
aF0.33698325422537762
aa(lp107
F-0.46274028805333989
aF0.33698325422537762
aa(lp108
F-0.46274028805333989
aF0.33698325422537762
aa(lp109
F-0.46274028805333989
aF0.33698325422537762
aa(lp110
F-0.46274028805333989
aF0.33698325422537762
aa(lp111
F-0.46121313669922137
aF0.31780540228660342
aa(lp112
F-0.45179699352792102
aF0.26536868366093358
aa(lp113
F-0.45179699352792102
aF0.26536868366093358
aa(lp114
F-0.45179699352792102
aF0.26536868366093358
aa(lp115
F-0.41453108181549431
aF0.32997184895341586
aa(lp116
F-0.41453108181549431
aF0.32997184895341586
aa(lp117
F-0.41453108181549431
aF0.32997184895341586
aa(lp118
F-0.41453108181549431
aF0.32997184895341586
aa(lp119
F-0.41453108181549431
aF0.32997184895341586
aa(lp120
F-0.41453108181549431
aF0.32997184895341586
aa(lp121
F-0.20078797005997934
aF0.31051412650250099
aa(lp122
F-0.20078797005997934
aF0.31051412650250099
aa(lp123
F-0.20078797005997934
aF0.31051412650250099
aa(lp124
F-0.20078797005997934
aF0.31051412650250099
aa(lp125
F-0.20078797005997934
aF0.31051412650250099
aa(lp126
F-0.20078797005997934
aF0.31051412650250099
aa(lp127
F-0.20078797005997934
aF0.31051412650250099
aa(lp128
F-0.20078797005997934
aF0.31051412650250099
aa(lp129
F-0.20078797005997934
aF0.31051412650250099
aa(lp130
F-0.20078797005997934
aF0.31051412650250099
aa(lp131
F-0.20078797005997934
aF0.31051412650250099
aa(lp132
F-0.20078797005997934
aF0.31051412650250099
aa(lp133
F-0.20078797005997934
aF0.31051412650250099
aa(lp134
F-0.20078797005997934
aF0.31051412650250099
aa(lp135
F-0.20078797005997934
aF0.31051412650250099
aa(lp136
F-0.20078797005997934
aF0.31051412650250099
aa(lp137
F-0.20078797005997934
aF0.31051412650250099
aa(lp138
F-0.20078797005997934
aF0.31051412650250099
aa(lp139
F-0.20078797005997934
aF0.31051412650250099
aa(lp140
F-0.20078797005997934
aF0.31051412650250099
aa(lp141
F-0.20078797005997934
aF0.31051412650250099
aa(lp142
F-0.20078797005997934
aF0.31051412650250099
aa(lp143
F-0.20078797005997934
aF0.31051412650250099
aa(lp144
F-0.20078797005997934
aF0.31051412650250099
aa(lp145
F-0.20078797005997934
aF0.31051412650250099
aa(lp146
F-0.20078797005997934
aF0.31051412650250099
aa(lp147
F-0.20078797005997934
aF0.31051412650250099
aa(lp148
F-0.20078797005997934
aF0.31051412650250099
aa(lp149
F-0.20078797005997934
aF0.31051412650250099
aa(lp150
F-0.20078797005997934
aF0.31051412650250099
aa(lp151
F-0.20078797005997934
aF0.31051412650250099
aa(lp152
F-0.20078797005997934
aF0.31051412650250099
aa(lp153
F-0.20078797005997934
aF0.31051412650250099
aa(lp154
F-0.20078797005997934
aF0.31051412650250099
aa(lp155
F-0.20078797005997934
aF0.31051412650250099
aa(lp156
F-0.20078797005997934
aF0.31051412650250099
aa(lp157
F-0.20078797005997934
aF0.31051412650250099
aa(lp158
F-0.20078797005997934
aF0.31051412650250099
aa(lp159
F-0.20078797005997934
aF0.31051412650250099
aa(lp160
F-0.20078797005997934
aF0.31051412650250099
aa(lp161
F-0.20078797005997934
aF0.31051412650250099
aa(lp162
F-0.20078797005997934
aF0.31051412650250099
aa(lp163
F-0.20078797005997934
aF0.31051412650250099
aa(lp164
F-0.20078797005997934
aF0.31051412650250099
aa(lp165
F-0.20078797005997934
aF0.31051412650250099
aa(lp166
F-0.20078797005997934
aF0.31051412650250099
aa(lp167
F-0.20078797005997934
aF0.31051412650250099
aa(lp168
F-0.20078797005997934
aF0.31051412650250099
aa(lp169
F-0.20078797005997934
aF0.31051412650250099
aa(lp170
F-0.20078797005997934
aF0.31051412650250099
aa(lp171
F-0.20078797005997934
aF0.31051412650250099
aa(lp172
F-0.20078797005997934
aF0.31051412650250099
aa(lp173
F-0.20078797005997934
aF0.31051412650250099
aa(lp174
F-0.20078797005997934
aF0.31051412650250099
aa(lp175
F-0.20078797005997934
aF0.31051412650250099
aa(lp176
F-0.20078797005997934
aF0.31051412650250099
aa(lp177
F-0.20078797005997934
aF0.31051412650250099
aa(lp178
F-0.20078797005997934
aF0.31051412650250099
aa(lp179
F-0.20078797005997934
aF0.31051412650250099
aa(lp180
F-0.20078797005997934
aF0.31051412650250099
aa(lp181
F-0.20078797005997934
aF0.31051412650250099
aa(lp182
F-0.20078797005997934
aF0.31051412650250099
aa(lp183
F-0.20078797005997934
aF0.31051412650250099
aa(lp184
F-0.20078797005997934
aF0.31051412650250099
aa(lp185
F-0.20078797005997934
aF0.31051412650250099
aa(lp186
F-0.20078797005997934
aF0.31051412650250099
aa(lp187
F-0.20078797005997934
aF0.31051412650250099
aa(lp188
F-0.20078797005997934
aF0.31051412650250099
aa(lp189
F-0.20078797005997934
aF0.31051412650250099
aa(lp190
F-0.20078797005997934
aF0.31051412650250099
aa(lp191
F-0.20078797005997934
aF0.31051412650250099
aa(lp192
F-0.20078797005997934
aF0.31051412650250099
aa(lp193
F-0.20078797005997934
aF0.31051412650250099
aa(lp194
F-0.20078797005997934
aF0.31051412650250099
aa(lp195
F-0.20078797005997934
aF0.31051412650250099
aa(lp196
F-0.20078797005997934
aF0.31051412650250099
aa(lp197
F-0.20078797005997934
aF0.31051412650250099
aa(lp198
F-0.20078797005997934
aF0.31051412650250099
aa(lp199
F-0.20078797005997934
aF0.31051412650250099
aa(lp200
F-0.20078797005997934
aF0.31051412650250099
aa(lp201
F-0.20078797005997934
aF0.31051412650250099
aa(lp202
F-0.20078797005997934
aF0.31051412650250099
aa(lp203
F-0.20078797005997934
aF0.31051412650250099
aaa(lp204
(lp205
F0.42502452567871929
aF-0.41745488560752353
aa(lp206
F0.42502452567871929
aF-0.41745488560752353
aa(lp207
F0.42502452567871929
aF-0.41745488560752353
aa(lp208
F0.42502452567871929
aF-0.41745488560752353
aa(lp209
F0.42384675854813841
aF-0.43689452480372226
aa(lp210
F0.42384675854813841
aF-0.43689452480372226
aa(lp211
F0.42384675854813841
aF-0.43689452480372226
aa(lp212
F0.42384675854813841
aF-0.43689452480372226
aa(lp213
F0.42384675854813841
aF-0.43689452480372226
aa(lp214
F0.42384675854813841
aF-0.43689452480372226
aa(lp215
F0.42384675854813841
aF-0.43689452480372226
aa(lp216
F0.42384675854813841
aF-0.43689452480372226
aa(lp217
F0.42384675854813841
aF-0.43689452480372226
aa(lp218
F0.42384675854813841
aF-0.43689452480372226
aa(lp219
F0.42384675854813841
aF-0.43689452480372226
aa(lp220
F0.42384675854813841
aF-0.43689452480372226
aa(lp221
F0.42384675854813841
aF-0.43689452480372226
aa(lp222
F0.42384675854813841
aF-0.43689452480372226
aa(lp223
F0.42384675854813841
aF-0.43689452480372226
aa(lp224
F0.42384675854813841
aF-0.43689452480372226
aa(lp225
F0.42384675854813841
aF-0.43689452480372226
aa(lp226
F0.42384675854813841
aF-0.43689452480372226
aa(lp227
F0.42384675854813841
aF-0.43689452480372226
aa(lp228
F0.42384675854813841
aF-0.43689452480372226
aa(lp229
F0.42384675854813841
aF-0.43689452480372226
aa(lp230
F0.42384675854813841
aF-0.43689452480372226
aa(lp231
F0.42384675854813841
aF-0.43689452480372226
aa(lp232
F0.42384675854813841
aF-0.43689452480372226
aa(lp233
F0.42384675854813841
aF-0.43689452480372226
aa(lp234
F0.42384675854813841
aF-0.43689452480372226
aa(lp235
F0.42384675854813841
aF-0.43689452480372226
aa(lp236
F0.42384675854813841
aF-0.43689452480372226
aa(lp237
F0.42384675854813841
aF-0.43689452480372226
aa(lp238
F0.42384675854813841
aF-0.43689452480372226
aa(lp239
F0.42384675854813841
aF-0.43689452480372226
aa(lp240
F0.42384675854813841
aF-0.43689452480372226
aa(lp241
F0.42384675854813841
aF-0.43689452480372226
aa(lp242
F0.42384675854813841
aF-0.43689452480372226
aa(lp243
F0.42384675854813841
aF-0.43689452480372226
aa(lp244
F0.42384675854813841
aF-0.43689452480372226
aa(lp245
F0.42384675854813841
aF-0.43689452480372226
aa(lp246
F0.42384675854813841
aF-0.43689452480372226
aa(lp247
F0.42384675854813841
aF-0.43689452480372226
aa(lp248
F0.42384675854813841
aF-0.43689452480372226
aa(lp249
F0.42384675854813841
aF-0.43689452480372226
aa(lp250
F0.42384675854813841
aF-0.43689452480372226
aa(lp251
F0.42384675854813841
aF-0.43689452480372226
aa(lp252
F0.42384675854813841
aF-0.43689452480372226
aa(lp253
F0.42384675854813841
aF-0.43689452480372226
aa(lp254
F0.42384675854813841
aF-0.43689452480372226
aa(lp255
F0.42384675854813841
aF-0.43689452480372226
aa(lp256
F0.42384675854813841
aF-0.43689452480372226
aa(lp257
F0.42384675854813841
aF-0.43689452480372226
aa(lp258
F0.42384675854813841
aF-0.43689452480372226
aa(lp259
F0.42384675854813841
aF-0.43689452480372226
aa(lp260
F0.42384675854813841
aF-0.43689452480372226
aa(lp261
F0.42384675854813841
aF-0.43689452480372226
aa(lp262
F0.42384675854813841
aF-0.43689452480372226
aa(lp263
F0.42384675854813841
aF-0.43689452480372226
aa(lp264
F0.42384675854813841
aF-0.43689452480372226
aa(lp265
F0.42384675854813841
aF-0.43689452480372226
aa(lp266
F0.42384675854813841
aF-0.43689452480372226
aa(lp267
F0.42384675854813841
aF-0.43689452480372226
aa(lp268
F0.42384675854813841
aF-0.43689452480372226
aa(lp269
F0.42384675854813841
aF-0.43689452480372226
aa(lp270
F0.42384675854813841
aF-0.43689452480372226
aa(lp271
F0.42384675854813841
aF-0.43689452480372226
aa(lp272
F0.42384675854813841
aF-0.43689452480372226
aa(lp273
F0.42384675854813841
aF-0.43689452480372226
aa(lp274
F0.42384675854813841
aF-0.43689452480372226
aa(lp275
F0.42384675854813841
aF-0.43689452480372226
aa(lp276
F0.42384675854813841
aF-0.43689452480372226
aa(lp277
F0.42384675854813841
aF-0.43689452480372226
aa(lp278
F0.42384675854813841
aF-0.43689452480372226
aa(lp279
F0.42384675854813841
aF-0.43689452480372226
aa(lp280
F0.42384675854813841
aF-0.43689452480372226
aa(lp281
F0.42384675854813841
aF-0.43689452480372226
aa(lp282
F0.42384675854813841
aF-0.43689452480372226
aa(lp283
F0.42384675854813841
aF-0.43689452480372226
aa(lp284
F0.42384675854813841
aF-0.43689452480372226
aa(lp285
F0.42384675854813841
aF-0.43689452480372226
aa(lp286
F0.42384675854813841
aF-0.43689452480372226
aa(lp287
F0.42384675854813841
aF-0.43689452480372226
aa(lp288
F0.42384675854813841
aF-0.43689452480372226
aa(lp289
F0.42384675854813841
aF-0.43689452480372226
aa(lp290
F0.42384675854813841
aF-0.43689452480372226
aa(lp291
F0.42384675854813841
aF-0.43689452480372226
aa(lp292
F0.42384675854813841
aF-0.43689452480372226
aa(lp293
F0.42384675854813841
aF-0.43689452480372226
aa(lp294
F0.42384675854813841
aF-0.43689452480372226
aa(lp295
F0.42384675854813841
aF-0.43689452480372226
aa(lp296
F0.42384675854813841
aF-0.43689452480372226
aa(lp297
F0.42384675854813841
aF-0.43689452480372226
aa(lp298
F0.42384675854813841
aF-0.43689452480372226
aa(lp299
F0.42384675854813841
aF-0.43689452480372226
aa(lp300
F0.42384675854813841
aF-0.43689452480372226
aa(lp301
F0.42384675854813841
aF-0.43689452480372226
aa(lp302
F0.42384675854813841
aF-0.43689452480372226
aa(lp303
F0.42384675854813841
aF-0.43689452480372226
aa(lp304
F0.42384675854813841
aF-0.43689452480372226
aaa(lp305
(lp306
F-0.3350937813934578
aF-0.31376207460140731
aa(lp307
F-0.3350937813934578
aF-0.31376207460140731
aa(lp308
F-0.3350937813934578
aF-0.31376207460140731
aa(lp309
F-0.3350937813934578
aF-0.31376207460140731
aa(lp310
F-0.37249378686507234
aF-0.1485112204151052
aa(lp311
F-0.37249378686507234
aF-0.1485112204151052
aa(lp312
F-0.37249378686507234
aF-0.1485112204151052
aa(lp313
F-0.37249378686507234
aF-0.1485112204151052
aa(lp314
F-0.37249378686507234
aF-0.1485112204151052
aa(lp315
F-0.37249378686507234
aF-0.1485112204151052
aa(lp316
F-0.37249378686507234
aF-0.1485112204151052
aa(lp317
F-0.37249378686507234
aF-0.1485112204151052
aa(lp318
F-0.37249378686507234
aF-0.1485112204151052
aa(lp319
F-0.37249378686507234
aF-0.1485112204151052
aa(lp320
F-0.37249378686507234
aF-0.1485112204151052
aa(lp321
F-0.37249378686507234
aF-0.1485112204151052
aa(lp322
F-0.37249378686507234
aF-0.1485112204151052
aa(lp323
F-0.37249378686507234
aF-0.1485112204151052
aa(lp324
F-0.37249378686507234
aF-0.1485112204151052
aa(lp325
F-0.37249378686507234
aF-0.1485112204151052
aa(lp326
F-0.37249378686507234
aF-0.1485112204151052
aa(lp327
F-0.37249378686507234
aF-0.1485112204151052
aa(lp328
F-0.37249378686507234
aF-0.1485112204151052
aa(lp329
F-0.37249378686507234
aF-0.1485112204151052
aa(lp330
F-0.37249378686507234
aF-0.1485112204151052
aa(lp331
F-0.37249378686507234
aF-0.1485112204151052
aa(lp332
F-0.37249378686507234
aF-0.1485112204151052
aa(lp333
F-0.37249378686507234
aF-0.1485112204151052
aa(lp334
F-0.37249378686507234
aF-0.1485112204151052
aa(lp335
F-0.37249378686507234
aF-0.1485112204151052
aa(lp336
F-0.37249378686507234
aF-0.1485112204151052
aa(lp337
F-0.37249378686507234
aF-0.1485112204151052
aa(lp338
F-0.37249378686507234
aF-0.1485112204151052
aa(lp339
F-0.37249378686507234
aF-0.1485112204151052
aa(lp340
F-0.37249378686507234
aF-0.1485112204151052
aa(lp341
F-0.37249378686507234
aF-0.1485112204151052
aa(lp342
F-0.37249378686507234
aF-0.1485112204151052
aa(lp343
F-0.37249378686507234
aF-0.1485112204151052
aa(lp344
F-0.37249378686507234
aF-0.1485112204151052
aa(lp345
F-0.37249378686507234
aF-0.1485112204151052
aa(lp346
F-0.37249378686507234
aF-0.1485112204151052
aa(lp347
F-0.37249378686507234
aF-0.1485112204151052
aa(lp348
F-0.37249378686507234
aF-0.1485112204151052
aa(lp349
F-0.37249378686507234
aF-0.1485112204151052
aa(lp350
F-0.37249378686507234
aF-0.1485112204151052
aa(lp351
F-0.37249378686507234
aF-0.1485112204151052
aa(lp352
F-0.37249378686507234
aF-0.1485112204151052
aa(lp353
F-0.37249378686507234
aF-0.1485112204151052
aa(lp354
F-0.37249378686507234
aF-0.1485112204151052
aa(lp355
F-0.37249378686507234
aF-0.1485112204151052
aa(lp356
F-0.37249378686507234
aF-0.1485112204151052
aa(lp357
F-0.37249378686507234
aF-0.1485112204151052
aa(lp358
F-0.37249378686507234
aF-0.1485112204151052
aa(lp359
F-0.37249378686507234
aF-0.1485112204151052
aa(lp360
F-0.37249378686507234
aF-0.1485112204151052
aa(lp361
F-0.37249378686507234
aF-0.1485112204151052
aa(lp362
F-0.37249378686507234
aF-0.1485112204151052
aa(lp363
F-0.37249378686507234
aF-0.1485112204151052
aa(lp364
F-0.37249378686507234
aF-0.1485112204151052
aa(lp365
F-0.37249378686507234
aF-0.1485112204151052
aa(lp366
F-0.37249378686507234
aF-0.1485112204151052
aa(lp367
F-0.37249378686507234
aF-0.1485112204151052
aa(lp368
F-0.37249378686507234
aF-0.1485112204151052
aa(lp369
F-0.37249378686507234
aF-0.1485112204151052
aa(lp370
F-0.37249378686507234
aF-0.1485112204151052
aa(lp371
F-0.37249378686507234
aF-0.1485112204151052
aa(lp372
F-0.37249378686507234
aF-0.1485112204151052
aa(lp373
F-0.37249378686507234
aF-0.1485112204151052
aa(lp374
F-0.37249378686507234
aF-0.1485112204151052
aa(lp375
F-0.37249378686507234
aF-0.1485112204151052
aa(lp376
F-0.37249378686507234
aF-0.1485112204151052
aa(lp377
F-0.37249378686507234
aF-0.1485112204151052
aa(lp378
F-0.37249378686507234
aF-0.1485112204151052
aa(lp379
F-0.37249378686507234
aF-0.1485112204151052
aa(lp380
F-0.37249378686507234
aF-0.1485112204151052
aa(lp381
F-0.37249378686507234
aF-0.1485112204151052
aa(lp382
F-0.37249378686507234
aF-0.1485112204151052
aa(lp383
F-0.37249378686507234
aF-0.1485112204151052
aa(lp384
F-0.37249378686507234
aF-0.1485112204151052
aa(lp385
F-0.37249378686507234
aF-0.1485112204151052
aa(lp386
F-0.37249378686507234
aF-0.1485112204151052
aa(lp387
F-0.37249378686507234
aF-0.1485112204151052
aa(lp388
F-0.37249378686507234
aF-0.1485112204151052
aa(lp389
F-0.37249378686507234
aF-0.1485112204151052
aa(lp390
F-0.37249378686507234
aF-0.1485112204151052
aa(lp391
F-0.37249378686507234
aF-0.1485112204151052
aa(lp392
F-0.37249378686507234
aF-0.1485112204151052
aa(lp393
F-0.37249378686507234
aF-0.1485112204151052
aa(lp394
F-0.37249378686507234
aF-0.1485112204151052
aa(lp395
F-0.37249378686507234
aF-0.1485112204151052
aa(lp396
F-0.37249378686507234
aF-0.1485112204151052
aa(lp397
F-0.37249378686507234
aF-0.1485112204151052
aa(lp398
F-0.28520603331069166
aF-0.25316713883243031
aa(lp399
F-0.28520603331069166
aF-0.25316713883243031
aa(lp400
F-0.28520603331069166
aF-0.25316713883243031
aa(lp401
F-0.28520603331069166
aF-0.25316713883243031
aa(lp402
F-0.28520603331069166
aF-0.25316713883243031
aa(lp403
F-0.28520603331069166
aF-0.25316713883243031
aa(lp404
F-0.28520603331069166
aF-0.25316713883243031
aa(lp405
F-0.28520603331069166
aF-0.25316713883243031
aaa(lp406
(lp407
F-0.022923254361167784
aF-0.50604300324478801
aa(lp408
F-0.022923254361167784
aF-0.50604300324478801
aa(lp409
F-0.022923254361167784
aF-0.50604300324478801
aa(lp410
F-0.022923254361167784
aF-0.50604300324478801
aa(lp411
F-0.022923254361167784
aF-0.50604300324478801
aa(lp412
F-0.022923254361167784
aF-0.50604300324478801
aa(lp413
F-0.022923254361167784
aF-0.50604300324478801
aa(lp414
F-0.022923254361167784
aF-0.50604300324478801
aa(lp415
F-0.022923254361167784
aF-0.50604300324478801
aa(lp416
F-0.022923254361167784
aF-0.50604300324478801
aa(lp417
F0.0076290670169174256
aF-0.53771440212796096
aa(lp418
F0.0076290670169174256
aF-0.53771440212796096
aa(lp419
F0.0076290670169174256
aF-0.53771440212796096
aa(lp420
F0.0076290670169174256
aF-0.53771440212796096
aa(lp421
F0.0076290670169174256
aF-0.53771440212796096
aa(lp422
F0.0076290670169174256
aF-0.53771440212796096
aa(lp423
F0.0076290670169174256
aF-0.53771440212796096
aa(lp424
F0.0076290670169174256
aF-0.53771440212796096
aa(lp425
F0.0076290670169174256
aF-0.53771440212796096
aa(lp426
F0.0076290670169174256
aF-0.53771440212796096
aa(lp427
F0.0076290670169174256
aF-0.53771440212796096
aa(lp428
F0.0076290670169174256
aF-0.53771440212796096
aa(lp429
F0.0076290670169174256
aF-0.53771440212796096
aa(lp430
F0.0076290670169174256
aF-0.53771440212796096
aa(lp431
F0.0076290670169174256
aF-0.53771440212796096
aa(lp432
F0.0076290670169174256
aF-0.53771440212796096
aa(lp433
F0.0076290670169174256
aF-0.53771440212796096
aa(lp434
F0.0076290670169174256
aF-0.53771440212796096
aa(lp435
F0.0076290670169174256
aF-0.53771440212796096
aa(lp436
F0.0076290670169174256
aF-0.53771440212796096
aa(lp437
F0.0076290670169174256
aF-0.53771440212796096
aa(lp438
F0.0076290670169174256
aF-0.53771440212796096
aa(lp439
F0.0076290670169174256
aF-0.53771440212796096
aa(lp440
F0.0076290670169174256
aF-0.53771440212796096
aa(lp441
F0.0076290670169174256
aF-0.53771440212796096
aa(lp442
F0.0076290670169174256
aF-0.53771440212796096
aa(lp443
F0.0076290670169174256
aF-0.53771440212796096
aa(lp444
F0.0076290670169174256
aF-0.53771440212796096
aa(lp445
F0.0076290670169174256
aF-0.53771440212796096
aa(lp446
F0.0076290670169174256
aF-0.53771440212796096
aa(lp447
F0.0076290670169174256
aF-0.53771440212796096
aa(lp448
F0.0076290670169174256
aF-0.53771440212796096
aa(lp449
F0.0076290670169174256
aF-0.53771440212796096
aa(lp450
F0.0076290670169174256
aF-0.53771440212796096
aa(lp451
F0.0076290670169174256
aF-0.53771440212796096
aa(lp452
F0.0076290670169174256
aF-0.53771440212796096
aa(lp453
F0.0076290670169174256
aF-0.53771440212796096
aa(lp454
F0.0076290670169174256
aF-0.53771440212796096
aa(lp455
F0.0076290670169174256
aF-0.53771440212796096
aa(lp456
F0.0076290670169174256
aF-0.53771440212796096
aa(lp457
F0.0076290670169174256
aF-0.53771440212796096
aa(lp458
F0.0076290670169174256
aF-0.53771440212796096
aa(lp459
F0.0076290670169174256
aF-0.53771440212796096
aa(lp460
F0.0076290670169174256
aF-0.53771440212796096
aa(lp461
F0.0076290670169174256
aF-0.53771440212796096
aa(lp462
F0.0076290670169174256
aF-0.53771440212796096
aa(lp463
F0.0076290670169174256
aF-0.53771440212796096
aa(lp464
F0.0076290670169174256
aF-0.53771440212796096
aa(lp465
F0.0076290670169174256
aF-0.53771440212796096
aa(lp466
F0.0076290670169174256
aF-0.53771440212796096
aa(lp467
F0.0076290670169174256
aF-0.53771440212796096
aa(lp468
F0.0076290670169174256
aF-0.53771440212796096
aa(lp469
F0.0076290670169174256
aF-0.53771440212796096
aa(lp470
F0.0076290670169174256
aF-0.53771440212796096
aa(lp471
F0.0076290670169174256
aF-0.53771440212796096
aa(lp472
F0.0076290670169174256
aF-0.53771440212796096
aa(lp473
F0.0076290670169174256
aF-0.53771440212796096
aa(lp474
F0.0076290670169174256
aF-0.53771440212796096
aa(lp475
F0.0076290670169174256
aF-0.53771440212796096
aa(lp476
F0.0076290670169174256
aF-0.53771440212796096
aa(lp477
F0.0076290670169174256
aF-0.53771440212796096
aa(lp478
F0.0076290670169174256
aF-0.53771440212796096
aa(lp479
F0.0076290670169174256
aF-0.53771440212796096
aa(lp480
F0.0076290670169174256
aF-0.53771440212796096
aa(lp481
F0.0076290670169174256
aF-0.53771440212796096
aa(lp482
F0.0076290670169174256
aF-0.53771440212796096
aa(lp483
F0.0076290670169174256
aF-0.53771440212796096
aa(lp484
F0.0076290670169174256
aF-0.53771440212796096
aa(lp485
F0.0076290670169174256
aF-0.53771440212796096
aa(lp486
F0.0076290670169174256
aF-0.53771440212796096
aa(lp487
F0.0076290670169174256
aF-0.53771440212796096
aa(lp488
F0.0076290670169174256
aF-0.53771440212796096
aa(lp489
F0.0076290670169174256
aF-0.53771440212796096
aa(lp490
F0.0076290670169174256
aF-0.53771440212796096
aa(lp491
F0.0076290670169174256
aF-0.53771440212796096
aa(lp492
F0.0076290670169174256
aF-0.53771440212796096
aa(lp493
F0.0076290670169174256
aF-0.53771440212796096
aa(lp494
F0.0076290670169174256
aF-0.53771440212796096
aa(lp495
F0.0076290670169174256
aF-0.53771440212796096
aa(lp496
F0.0076290670169174256
aF-0.53771440212796096
aa(lp497
F0.0076290670169174256
aF-0.53771440212796096
aa(lp498
F0.0076290670169174256
aF-0.53771440212796096
aa(lp499
F0.0076290670169174256
aF-0.53771440212796096
aa(lp500
F0.0076290670169174256
aF-0.53771440212796096
aa(lp501
F0.0076290670169174256
aF-0.53771440212796096
aa(lp502
F0.0076290670169174256
aF-0.53771440212796096
aa(lp503
F0.0076290670169174256
aF-0.53771440212796096
aa(lp504
F0.0076290670169174256
aF-0.53771440212796096
aa(lp505
F0.0076290670169174256
aF-0.53771440212796096
aa(lp506
F0.0076290670169174256
aF-0.53771440212796096
aaa.