(lp1
(lp2
(lp3
F0.51083817181733959
aF0.1792208332297707
aa(lp4
F0.51083817181733959
aF0.1792208332297707
aa(lp5
F0.51083817181733959
aF0.1792208332297707
aa(lp6
F0.51083817181733959
aF0.1792208332297707
aa(lp7
F0.51083817181733959
aF0.1792208332297707
aa(lp8
F0.51083817181733959
aF0.1792208332297707
aa(lp9
F0.51083817181733959
aF0.1792208332297707
aa(lp10
F0.51083817181733959
aF0.1792208332297707
aa(lp11
F0.51083817181733959
aF0.1792208332297707
aa(lp12
F0.49760601661845355
aF0.16789830622832413
aa(lp13
F0.49760601661845355
aF0.16789830622832413
aa(lp14
F0.49760601661845355
aF0.16789830622832413
aa(lp15
F0.49760601661845355
aF0.16789830622832413
aa(lp16
F0.49760601661845355
aF0.16789830622832413
aa(lp17
F0.49760601661845355
aF0.16789830622832413
aa(lp18
F0.49760601661845355
aF0.16789830622832413
aa(lp19
F0.49760601661845355
aF0.16789830622832413
aa(lp20
F0.49760601661845355
aF0.16789830622832413
aa(lp21
F0.49760601661845355
aF0.16789830622832413
aa(lp22
F0.49760601661845355
aF0.16789830622832413
aaa(lp23
(lp24
F-0.46274028805333989
aF0.33698325422537762
aa(lp25
F-0.46274028805333989
aF0.33698325422537762
aa(lp26
F-0.46274028805333989
aF0.33698325422537762
aa(lp27
F-0.46274028805333989
aF0.33698325422537762
aa(lp28
F-0.46274028805333989
aF0.33698325422537762
aa(lp29
F-0.46274028805333989
aF0.33698325422537762
aa(lp30
F-0.46274028805333989
aF0.33698325422537762
aa(lp31
F-0.46121313669922137
aF0.31780540228660342
aa(lp32
F-0.45179699352792102
aF0.26536868366093358
aa(lp33
F-0.45179699352792102
aF0.26536868366093358
aa(lp34
F-0.45179699352792102
aF0.26536868366093358
aa(lp35
F-0.41453108181549431
aF0.32997184895341586
aa(lp36
F-0.41453108181549431
aF0.32997184895341586
aa(lp37
F-0.41453108181549431
aF0.32997184895341586
aa(lp38
F-0.41453108181549431
aF0.32997184895341586
aa(lp39
F-0.41453108181549431
aF0.32997184895341586
aa(lp40
F-0.41453108181549431
aF0.32997184895341586
aa(lp41
F-0.20078797005997934
aF0.31051412650250099
aa(lp42
F-0.20078797005997934
aF0.31051412650250099
aa(lp43
F-0.20078797005997934
aF0.31051412650250099
aaa(lp44
(lp45
F0.42502452567871929
aF-0.41745488560752353
aa(lp46
F0.42502452567871929
aF-0.41745488560752353
aa(lp47
F0.42502452567871929
aF-0.41745488560752353
aa(lp48
F0.42502452567871929
aF-0.41745488560752353
aa(lp49
F0.42384675854813841
aF-0.43689452480372226
aa(lp50
F0.42384675854813841
aF-0.43689452480372226
aa(lp51
F0.42384675854813841
aF-0.43689452480372226
aa(lp52
F0.42384675854813841
aF-0.43689452480372226
aa(lp53
F0.42384675854813841
aF-0.43689452480372226
aa(lp54
F0.42384675854813841
aF-0.43689452480372226
aa(lp55
F0.42384675854813841
aF-0.43689452480372226
aa(lp56
F0.42384675854813841
aF-0.43689452480372226
aa(lp57
F0.42384675854813841
aF-0.43689452480372226
aa(lp58
F0.42384675854813841
aF-0.43689452480372226
aa(lp59
F0.42384675854813841
aF-0.43689452480372226
aa(lp60
F0.42384675854813841
aF-0.43689452480372226
aa(lp61
F0.42384675854813841
aF-0.43689452480372226
aa(lp62
F0.42384675854813841
aF-0.43689452480372226
aa(lp63
F0.42384675854813841
aF-0.43689452480372226
aa(lp64
F0.42384675854813841
aF-0.43689452480372226
aaa(lp65
(lp66
F-0.3350937813934578
aF-0.31376207460140731
aa(lp67
F-0.3350937813934578
aF-0.31376207460140731
aa(lp68
F-0.3350937813934578
aF-0.31376207460140731
aa(lp69
F-0.3350937813934578
aF-0.31376207460140731
aa(lp70
F-0.37249378686507234
aF-0.1485112204151052
aa(lp71
F-0.37249378686507234
aF-0.1485112204151052
aa(lp72
F-0.37249378686507234
aF-0.1485112204151052
aa(lp73
F-0.37249378686507234
aF-0.1485112204151052
aa(lp74
F-0.37249378686507234
aF-0.1485112204151052
aa(lp75
F-0.37249378686507234
aF-0.1485112204151052
aa(lp76
F-0.37249378686507234
aF-0.1485112204151052
aa(lp77
F-0.37249378686507234
aF-0.1485112204151052
aa(lp78
F-0.37249378686507234
aF-0.1485112204151052
aa(lp79
F-0.37249378686507234
aF-0.1485112204151052
aa(lp80
F-0.37249378686507234
aF-0.1485112204151052
aa(lp81
F-0.37249378686507234
aF-0.1485112204151052
aa(lp82
F-0.37249378686507234
aF-0.1485112204151052
aa(lp83
F-0.37249378686507234
aF-0.1485112204151052
aa(lp84
F-0.37249378686507234
aF-0.1485112204151052
aa(lp85
F-0.37249378686507234
aF-0.1485112204151052
aaa(lp86
(lp87
F-0.022923254361167784
aF-0.50604300324478801
aa(lp88
F-0.022923254361167784
aF-0.50604300324478801
aa(lp89
F-0.022923254361167784
aF-0.50604300324478801
aa(lp90
F-0.022923254361167784
aF-0.50604300324478801
aa(lp91
F-0.022923254361167784
aF-0.50604300324478801
aa(lp92
F-0.022923254361167784
aF-0.50604300324478801
aa(lp93
F-0.022923254361167784
aF-0.50604300324478801
aa(lp94
F-0.022923254361167784
aF-0.50604300324478801
aa(lp95
F-0.022923254361167784
aF-0.50604300324478801
aa(lp96
F-0.022923254361167784
aF-0.50604300324478801
aa(lp97
F0.0076290670169174256
aF-0.53771440212796096
aa(lp98
F0.0076290670169174256
aF-0.53771440212796096
aa(lp99
F0.0076290670169174256
aF-0.53771440212796096
aa(lp100
F0.0076290670169174256
aF-0.53771440212796096
aa(lp101
F0.0076290670169174256
aF-0.53771440212796096
aa(lp102
F0.0076290670169174256
aF-0.53771440212796096
aa(lp103
F0.0076290670169174256
aF-0.53771440212796096
aa(lp104
F0.0076290670169174256
aF-0.53771440212796096
aa(lp105
F0.0076290670169174256
aF-0.53771440212796096
aa(lp106
F0.0076290670169174256
aF-0.53771440212796096
aaa.