(lp1
(lp2
L4L
aL4L
aL4L
aL4L
aL4L
aL4L
aL4L
aL4L
aL4L
aL6L
aL6L
aL6L
aL6L
aL6L
aL6L
aL6L
aL6L
aL6L
aL6L
aL6L
aL6L
aL6L
aL6L
aL6L
aL6L
aL6L
aL6L
aL6L
aL6L
aL6L
aL6L
aL6L
aL6L
aL6L
aL6L
aL6L
aL6L
aL6L
aL6L
aL6L
aL6L
aL6L
aL6L
aL6L
aL6L
aL6L
aL6L
aL6L
aL6L
aL6L
aL6L
aL6L
aL6L
aL6L
aL6L
aL6L
aL6L
aL6L
aL6L
aL6L
aL6L
aL6L
aL6L
aL6L
aL6L
aL6L
aL6L
aL6L
aL6L
aL6L
aL6L
aL6L
aL6L
aL6L
aL6L
aL6L
aL6L
aL6L
aL6L
aL6L
aL6L
aL6L
aL6L
aL6L
aL6L
aL6L
aL6L
aL6L
aL6L
aL6L
aL6L
aL6L
aL6L
aL6L
aL6L
aL6L
aL6L
aL6L
aL6L
aL6L
aa(lp3
L2L
aL2L
aL2L
aL2L
aL2L
aL2L
aL2L
aL4L
aL6L
aL6L
aL6L
aL7L
aL7L
aL7L
aL7L
aL7L
aL7L
aL12L
aL12L
aL12L
aL12L
aL12L
aL12L
aL12L
aL12L
aL12L
aL12L
aL12L
aL12L
aL12L
aL12L
aL12L
aL12L
aL12L
aL12L
aL12L
aL12L
aL12L
aL12L
aL12L
aL12L
aL12L
aL12L
aL12L
aL12L
aL12L
aL12L
aL12L
aL12L
aL12L
aL12L
aL12L
aL12L
aL12L
aL12L
aL12L
aL12L
aL12L
aL12L
aL12L
aL12L
aL12L
aL12L
aL12L
aL12L
aL12L
aL12L
aL12L
aL12L
aL12L
aL12L
aL12L
aL12L
aL12L
aL12L
aL12L
aL12L
aL12L
aL12L
aL12L
aL12L
aL12L
aL12L
aL12L
aL12L
aL12L
aL12L
aL12L
aL12L
aL12L
aL12L
aL12L
aL12L
aL12L
aL12L
aL12L
aL12L
aL12L
aL12L
aL12L
aa(lp4
L5L
aL5L
aL5L
aL5L
aL7L
aL7L
aL7L
aL7L
aL7L
aL7L
aL7L
aL7L
aL7L
aL7L
aL7L
aL7L
aL7L
aL7L
aL7L
aL7L
aL7L
aL7L
aL7L
aL7L
aL7L
aL7L
aL7L
aL7L
aL7L
aL7L
aL7L
aL7L
aL7L
aL7L
aL7L
aL7L
aL7L
aL7L
aL7L
aL7L
aL7L
aL7L
aL7L
aL7L
aL7L
aL7L
aL7L
aL7L
aL7L
aL7L
aL7L
aL7L
aL7L
aL7L
aL7L
aL7L
aL7L
aL7L
aL7L
aL7L
aL7L
aL7L
aL7L
aL7L
aL7L
aL7L
aL7L
aL7L
aL7L
aL7L
aL7L
aL7L
aL7L
aL7L
aL7L
aL7L
aL7L
aL7L
aL7L
aL7L
aL7L
aL7L
aL7L
aL7L
aL7L
aL7L
aL7L
aL7L
aL7L
aL7L
aL7L
aL7L
aL7L
aL7L
aL7L
aL7L
aL7L
aL7L
aL7L
aL7L
aa(lp5
L6L
aL6L
aL6L
aL6L
aL9L
aL9L
aL9L
aL9L
aL9L
aL9L
aL9L
aL9L
aL9L
aL9L
aL9L
aL9L
aL9L
aL9L
aL9L
aL9L
aL9L
aL9L
aL9L
aL9L
aL9L
aL9L
aL9L
aL9L
aL9L
aL9L
aL9L
aL9L
aL9L
aL9L
aL9L
aL9L
aL9L
aL9L
aL9L
aL9L
aL9L
aL9L
aL9L
aL9L
aL9L
aL9L
aL9L
aL9L
aL9L
aL9L
aL9L
aL9L
aL9L
aL9L
aL9L
aL9L
aL9L
aL9L
aL9L
aL9L
aL9L
aL9L
aL9L
aL9L
aL9L
aL9L
aL9L
aL9L
aL9L
aL9L
aL9L
aL9L
aL9L
aL9L
aL9L
aL9L
aL9L
aL9L
aL9L
aL9L
aL9L
aL9L
aL9L
aL9L
aL9L
aL9L
aL9L
aL9L
aL9L
aL9L
aL9L
aL9L
aL11L
aL11L
aL11L
aL11L
aL11L
aL11L
aL11L
aL11L
aa(lp6
L5L
aL5L
aL5L
aL5L
aL5L
aL5L
aL5L
aL5L
aL5L
aL5L
aL8L
aL8L
aL8L
aL8L
aL8L
aL8L
aL8L
aL8L
aL8L
aL8L
aL8L
aL8L
aL8L
aL8L
aL8L
aL8L
aL8L
aL8L
aL8L
aL8L
aL8L
aL8L
aL8L
aL8L
aL8L
aL8L
aL8L
aL8L
aL8L
aL8L
aL8L
aL8L
aL8L
aL8L
aL8L
aL8L
aL8L
aL8L
aL8L
aL8L
aL8L
aL8L
aL8L
aL8L
aL8L
aL8L
aL8L
aL8L
aL8L
aL8L
aL8L
aL8L
aL8L
aL8L
aL8L
aL8L
aL8L
aL8L
aL8L
aL8L
aL8L
aL8L
aL8L
aL8L
aL8L
aL8L
aL8L
aL8L
aL8L
aL8L
aL8L
aL8L
aL8L
aL8L
aL8L
aL8L
aL8L
aL8L
aL8L
aL8L
aL8L
aL8L
aL8L
aL8L
aL8L
aL8L
aL8L
aL8L
aL8L
aL8L
aa.