(lp1
F1
aF0.90909090909090906
aF0.81818181818181823
aF0.90909090909090906
aF0.81818181818181823
aF0.72727272727272729
aF0.72727272727272729
aF0.81818181818181823
aF0.81818181818181823
aF0.72727272727272729
aF0.72727272727272729
aF0.90909090909090906
aF0.72727272727272729
aF0.72727272727272729
aF0.81818181818181823
aF0.72727272727272729
aF0.72727272727272729
aF0.81818181818181823
aF0.81818181818181823
aF0.81818181818181823
aF0.72727272727272729
aF0.72727272727272729
aF0.63636363636363635
aF0.63636363636363635
aF0.63636363636363635
aF0.63636363636363635
aF0.72727272727272729
aF0.81818181818181823
aF0.81818181818181823
aF0.63636363636363635
aF0.72727272727272729
aF0.72727272727272729
aF0.63636363636363635
aF0.81818181818181823
aF0.63636363636363635
aF0.63636363636363635
aF0.63636363636363635
aF0.63636363636363635
aF0.63636363636363635
aF0.63636363636363635
aF0.63636363636363635
aF0.63636363636363635
aF0.63636363636363635
aF0.72727272727272729
aF0.63636363636363635
aF0.63636363636363635
aF0.63636363636363635
aF0.63636363636363635
aF0.63636363636363635
aF0.63636363636363635
aF0.63636363636363635
aF0.72727272727272729
aF0.72727272727272729
aF0.81818181818181823
aF0.63636363636363635
aF0.63636363636363635
aF0.63636363636363635
aF0.63636363636363635
aF0.63636363636363635
aF0.54545454545454541
aF0.54545454545454541
aF0.54545454545454541
aF0.54545454545454541
aF0.72727272727272729
aF0.54545454545454541
aF0.54545454545454541
aF0.63636363636363635
aF0.63636363636363635
aF0.72727272727272729
aF0.63636363636363635
aF0.54545454545454541
aF0.63636363636363635
aF0.63636363636363635
aF0.54545454545454541
aF0.54545454545454541
aF0.54545454545454541
aF0.54545454545454541
aF0.54545454545454541
aF0.54545454545454541
aF0.63636363636363635
aF0.63636363636363635
aF0.54545454545454541
aF0.54545454545454541
aF0.54545454545454541
aF0.54545454545454541
aF0.54545454545454541
aF0.54545454545454541
aF0.54545454545454541
aF0.54545454545454541
aF0.54545454545454541
aF0.63636363636363635
aF0.54545454545454541
aF0.54545454545454541
aF0.54545454545454541
aF0.54545454545454541
aF0.54545454545454541
aF0.54545454545454541
aF0.54545454545454541
aF0.54545454545454541
aF0.54545454545454541
aF0.54545454545454541
aF0.54545454545454541
aF0.54545454545454541
aF0.54545454545454541
aF0.54545454545454541
aF0.54545454545454541
aF0.63636363636363635
aF0.54545454545454541
aF0.54545454545454541
aF0.54545454545454541
aF0.63636363636363635
aF0.54545454545454541
aF0.45454545454545453
aF0.54545454545454541
aF0.54545454545454541
aF0.45454545454545453
aF0.54545454545454541
aF0.45454545454545453
aF0.45454545454545453
aF0.45454545454545453
aF0.45454545454545453
aF0.45454545454545453
aF0.45454545454545453
aF0.45454545454545453
aF0.45454545454545453
aF0.54545454545454541
aF0.45454545454545453
aF0.54545454545454541
aF0.45454545454545453
aF0.45454545454545453
aF0.45454545454545453
aF0.45454545454545453
aF0.54545454545454541
aF0.45454545454545453
aF0.45454545454545453
aF0.54545454545454541
aF0.45454545454545453
aF0.45454545454545453
aF0.45454545454545453
aF0.45454545454545453
aF0.45454545454545453
aF0.45454545454545453
aF0.45454545454545453
aF0.45454545454545453
aF0.45454545454545453
aF0.45454545454545453
aF0.45454545454545453
aF0.45454545454545453
aF0.45454545454545453
aF0.45454545454545453
aF0.45454545454545453
aF0.45454545454545453
aF0.45454545454545453
aF0.54545454545454541
aF0.45454545454545453
aF0.45454545454545453
aF0.45454545454545453
aF0.45454545454545453
aF0.54545454545454541
aF0.45454545454545453
aF0.45454545454545453
aF0.45454545454545453
aF0.45454545454545453
aF0.45454545454545453
aF0.45454545454545453
aF0.45454545454545453
aF0.45454545454545453
aF0.45454545454545453
aF0.45454545454545453
aF0.45454545454545453
aF0.45454545454545453
aF0.45454545454545453
aF0.45454545454545453
aF0.45454545454545453
aF0.45454545454545453
aF0.45454545454545453
aF0.45454545454545453
aF0.45454545454545453
aF0.45454545454545453
aF0.45454545454545453
aF0.45454545454545453
aF0.45454545454545453
aF0.45454545454545453
aF0.45454545454545453
aF0.45454545454545453
aF0.45454545454545453
aF0.45454545454545453
aF0.45454545454545453
aF0.45454545454545453
aF0.54545454545454541
aF0.45454545454545453
aF0.45454545454545453
aF0.45454545454545453
aF0.36363636363636365
aF0.36363636363636365
aF0.36363636363636365
aF0.45454545454545453
aF0.36363636363636365
aF0.36363636363636365
aF0.36363636363636365
aF0.36363636363636365
aF0.36363636363636365
aF0.36363636363636365
aF0.36363636363636365
aF0.36363636363636365
aF0.45454545454545453
aF0.54545454545454541
aF0.36363636363636365
aF0.36363636363636365
aF0.36363636363636365
aF0.36363636363636365
aF0.36363636363636365
aF0.36363636363636365
aF0.36363636363636365
aF0.36363636363636365
aF0.36363636363636365
aF0.36363636363636365
aF0.36363636363636365
aF0.36363636363636365
aF0.36363636363636365
aF0.36363636363636365
aF0.36363636363636365
aF0.36363636363636365
aF0.36363636363636365
aF0.36363636363636365
aF0.36363636363636365
aF0.36363636363636365
aF0.36363636363636365
aF0.45454545454545453
aF0.36363636363636365
aF0.36363636363636365
aF0.36363636363636365
aF0.36363636363636365
aF0.36363636363636365
aF0.36363636363636365
aF0.36363636363636365
aF0.36363636363636365
aF0.36363636363636365
aF0.36363636363636365
aF0.36363636363636365
aF0.36363636363636365
aF0.36363636363636365
aF0.36363636363636365
aF0.36363636363636365
aF0.36363636363636365
aF0.36363636363636365
aF0.36363636363636365
aF0.36363636363636365
aF0.36363636363636365
aF0.36363636363636365
aF0.36363636363636365
aF0.36363636363636365
aF0.36363636363636365
aF0.36363636363636365
aF0.36363636363636365
aF0.36363636363636365
aF0.36363636363636365
aF0.36363636363636365
aF0.36363636363636365
aF0.36363636363636365
aF0.36363636363636365
aF0.36363636363636365
aF0.36363636363636365
aF0.36363636363636365
aF0.36363636363636365
aF0.36363636363636365
aF0.36363636363636365
aF0.36363636363636365
aF0.36363636363636365
aF0.36363636363636365
aF0.36363636363636365
aF0.45454545454545453
aF0.36363636363636365
aF0.27272727272727271
aF0.27272727272727271
aF0.27272727272727271
aF0.27272727272727271
aF0.27272727272727271
aF0.27272727272727271
aF0.27272727272727271
aF0.27272727272727271
aF0.27272727272727271
aF0.27272727272727271
aF0.27272727272727271
aF0.27272727272727271
aF0.27272727272727271
aF0.27272727272727271
aF0.36363636363636365
aF0.36363636363636365
aF0.27272727272727271
aF0.27272727272727271
aF0.27272727272727271
aF0.27272727272727271
aF0.27272727272727271
aF0.27272727272727271
aF0.27272727272727271
aF0.45454545454545453
aF0.27272727272727271
aF0.27272727272727271
aF0.27272727272727271
aF0.27272727272727271
aF0.27272727272727271
aF0.27272727272727271
aF0.27272727272727271
aF0.27272727272727271
aF0.27272727272727271
aF0.27272727272727271
aF0.27272727272727271
aF0.27272727272727271
aF0.27272727272727271
aF0.27272727272727271
aF0.27272727272727271
aF0.36363636363636365
aF0.27272727272727271
aF0.27272727272727271
aF0.27272727272727271
aF0.27272727272727271
aF0.36363636363636365
aF0.27272727272727271
aF0.27272727272727271
aF0.27272727272727271
aF0.27272727272727271
aF0.27272727272727271
aF0.27272727272727271
aF0.27272727272727271
aF0.27272727272727271
aF0.27272727272727271
aF0.27272727272727271
aF0.27272727272727271
aF0.27272727272727271
aF0.27272727272727271
aF0.27272727272727271
aF0.27272727272727271
aF0.27272727272727271
aF0.27272727272727271
aF0.27272727272727271
aF0.27272727272727271
aF0.27272727272727271
aF0.27272727272727271
aF0.27272727272727271
aF0.27272727272727271
aF0.27272727272727271
aF0.27272727272727271
aF0.27272727272727271
aF0.27272727272727271
aF0.27272727272727271
aF0.27272727272727271
aF0.27272727272727271
aF0.27272727272727271
aF0.27272727272727271
aF0.27272727272727271
aF0.27272727272727271
aF0.36363636363636365
aF0.36363636363636365
aF0.27272727272727271
aF0.27272727272727271
aF0.27272727272727271
aF0.27272727272727271
aF0.27272727272727271
aF0.27272727272727271
aF0.27272727272727271
aF0.27272727272727271
aF0.27272727272727271
aF0.27272727272727271
aF0.27272727272727271
aF0.27272727272727271
aF0.27272727272727271
aF0.27272727272727271
aF0.27272727272727271
aF0.27272727272727271
aF0.27272727272727271
aF0.27272727272727271
aF0.27272727272727271
aF0.27272727272727271
aF0.27272727272727271
aF0.27272727272727271
aF0.27272727272727271
aF0.27272727272727271
aF0.27272727272727271
aF0.27272727272727271
aF0.27272727272727271
aF0.27272727272727271
aF0.27272727272727271
aF0.27272727272727271
aF0.27272727272727271
aF0.27272727272727271
aF0.27272727272727271
aF0.36363636363636365
aF0.36363636363636365
aF0.27272727272727271
aF0.27272727272727271
aF0.27272727272727271
aF0.27272727272727271
aF0.27272727272727271
aF0.27272727272727271
aF0.27272727272727271
aF0.27272727272727271
aF0.27272727272727271
aF0.27272727272727271
aF0.27272727272727271
aF0.27272727272727271
aF0.27272727272727271
aF0.27272727272727271
aF0.27272727272727271
aF0.27272727272727271
aF0.36363636363636365
aF0.27272727272727271
aF0.27272727272727271
aF0.27272727272727271
aF0.27272727272727271
aF0.27272727272727271
aF0.27272727272727271
aF0.27272727272727271
aF0.27272727272727271
aF0.27272727272727271
aF0.27272727272727271
aF0.27272727272727271
aF0.27272727272727271
aF0.27272727272727271
aF0.36363636363636365
aF0.18181818181818182
aF0.18181818181818182
aF0.18181818181818182
aF0.18181818181818182
aF0.18181818181818182
aF0.18181818181818182
aF0.27272727272727271
aF0.18181818181818182
aF0.18181818181818182
aF0.27272727272727271
aF0.18181818181818182
aF0.27272727272727271
aF0.18181818181818182
aF0.18181818181818182
aF0.18181818181818182
aF0.18181818181818182
aF0.18181818181818182
aF0.18181818181818182
aF0.18181818181818182
aF0.18181818181818182
aF0.18181818181818182
aF0.18181818181818182
aF0.18181818181818182
aF0.18181818181818182
aF0.18181818181818182
aF0.18181818181818182
aF0.27272727272727271
aF0.18181818181818182
aF0.18181818181818182
aF0.18181818181818182
aF0.18181818181818182
aF0.18181818181818182
aF0.18181818181818182
aF0.18181818181818182
aF0.18181818181818182
aF0.18181818181818182
aF0.18181818181818182
aF0.18181818181818182
aF0.18181818181818182
aF0.18181818181818182
aF0.18181818181818182
aF0.18181818181818182
aF0.18181818181818182
aF0.18181818181818182
aF0.18181818181818182
aF0.27272727272727271
aF0.18181818181818182
aF0.18181818181818182
aF0.18181818181818182
aF0.18181818181818182
aF0.18181818181818182
aF0.18181818181818182
aF0.18181818181818182
aF0.18181818181818182
aF0.18181818181818182
aF0.18181818181818182
aF0.18181818181818182
aF0.18181818181818182
aF0.18181818181818182
aF0.18181818181818182
aF0.27272727272727271
aF0.18181818181818182
aF0.18181818181818182
aF0.18181818181818182
aF0.18181818181818182
aF0.18181818181818182
aF0.18181818181818182
aF0.18181818181818182
aF0.18181818181818182
aF0.18181818181818182
aF0.18181818181818182
aF0.18181818181818182
aF0.18181818181818182
aF0.18181818181818182
aF0.18181818181818182
aF0.18181818181818182
aF0.18181818181818182
aF0.18181818181818182
aF0.18181818181818182
aF0.18181818181818182
aF0.18181818181818182
aF0.18181818181818182
aF0.18181818181818182
aF0.18181818181818182
aF0.18181818181818182
aF0.18181818181818182
aF0.18181818181818182
aF0.18181818181818182
aF0.18181818181818182
aF0.18181818181818182
aF0.18181818181818182
aF0.18181818181818182
aF0.18181818181818182
aF0.18181818181818182
aF0.18181818181818182
aF0.18181818181818182
aF0.18181818181818182
aF0.18181818181818182
aF0.27272727272727271
aF0.18181818181818182
aF0.18181818181818182
aF0.18181818181818182
aF0.18181818181818182
aF0.18181818181818182
aF0.18181818181818182
aF0.18181818181818182
aF0.18181818181818182
aF0.18181818181818182
aF0.18181818181818182
aF0.18181818181818182
aF0.18181818181818182
aF0.18181818181818182
aF0.18181818181818182
aF0.18181818181818182
aF0.18181818181818182
aF0.18181818181818182
aF0.18181818181818182
aF0.18181818181818182
aF0.18181818181818182
aF0.18181818181818182
aF0.18181818181818182
aF0.18181818181818182
aF0.18181818181818182
aF0.18181818181818182
aF0.18181818181818182
aF0.18181818181818182
aF0.18181818181818182
aF0.18181818181818182
aF0.18181818181818182
aF0.18181818181818182
aF0.18181818181818182
aF0.18181818181818182
aF0.18181818181818182
aF0.18181818181818182
aF0.18181818181818182
aF0.18181818181818182
aF0.18181818181818182
aF0.18181818181818182
aF0.18181818181818182
aF0.18181818181818182
aF0.18181818181818182
aF0.18181818181818182
aF0.18181818181818182
aF0.18181818181818182
aF0.18181818181818182
aF0.18181818181818182
aF0.18181818181818182
aF0.18181818181818182
aF0.18181818181818182
aF0.18181818181818182
aF0.18181818181818182
aF0.18181818181818182
aF0.18181818181818182
aF0.18181818181818182
aF0.18181818181818182
aF0.18181818181818182
aF0.18181818181818182
aF0.18181818181818182
aF0.18181818181818182
aF0.18181818181818182
aF0.18181818181818182
aF0.18181818181818182
aF0.18181818181818182
aF0.18181818181818182
aF0.18181818181818182
aF0.18181818181818182
aF0.18181818181818182
aF0.18181818181818182
aF0.18181818181818182
aF0.18181818181818182
aF0.18181818181818182
aF0.18181818181818182
aF0.18181818181818182
aF0.18181818181818182
aF0.18181818181818182
aF0.18181818181818182
aF0.18181818181818182
aF0.18181818181818182
aF0.18181818181818182
aF0.18181818181818182
aF0.27272727272727271
aF0.18181818181818182
aF0.18181818181818182
aF0.18181818181818182
aF0.18181818181818182
aF0.18181818181818182
aF0.18181818181818182
aF0.18181818181818182
aF0.18181818181818182
aF0.18181818181818182
aF0.18181818181818182
aF0.18181818181818182
aF0.18181818181818182
aF0.18181818181818182
aF0.18181818181818182
aF0.18181818181818182
aF0.18181818181818182
aF0.18181818181818182
aF0.18181818181818182
aF0.18181818181818182
aF0.18181818181818182
aF0.18181818181818182
aF0.27272727272727271
aF0.18181818181818182
aF0.18181818181818182
aF0.18181818181818182
aF0.18181818181818182
aF0.27272727272727271
aF0.18181818181818182
aF0.18181818181818182
aF0.18181818181818182
aF0.18181818181818182
aF0.18181818181818182
aF0.18181818181818182
aF0.18181818181818182
aF0.18181818181818182
aF0.18181818181818182
aF0.18181818181818182
aF0.18181818181818182
aF0.18181818181818182
aF0.18181818181818182
aF0.18181818181818182
aF0.18181818181818182
aF0.18181818181818182
aF0.18181818181818182
aF0.18181818181818182
aF0.18181818181818182
aF0.18181818181818182
aF0.18181818181818182
aF0.27272727272727271
aF0.27272727272727271
aF0.27272727272727271
aF0.18181818181818182
aF0.18181818181818182
aF0.27272727272727271
aF0.27272727272727271
aF0.18181818181818182
aF0.18181818181818182
aF0.18181818181818182
aF0.18181818181818182
aF0.18181818181818182
aF0.18181818181818182
aF0.18181818181818182
aF0.18181818181818182
aF0.18181818181818182
aF0.18181818181818182
aF0.18181818181818182
aF0.18181818181818182
aF0.18181818181818182
aF0.18181818181818182
aF0.18181818181818182
aF0.18181818181818182
aF0.18181818181818182
aF0.18181818181818182
aF0.18181818181818182
aF0.18181818181818182
aF0.18181818181818182
aF0.18181818181818182
aF0.18181818181818182
aF0.18181818181818182
aF0.18181818181818182
aF0.18181818181818182
aF0.18181818181818182
aF0.18181818181818182
aF0.18181818181818182
aF0.18181818181818182
aF0.18181818181818182
aF0.18181818181818182
aF0.18181818181818182
aF0.18181818181818182
aF0.18181818181818182
aF0.18181818181818182
aF0.18181818181818182
aF0.18181818181818182
aF0.18181818181818182
aF0.18181818181818182
aF0.18181818181818182
aF0.18181818181818182
aF0.18181818181818182
aF0.18181818181818182
aF0.18181818181818182
aF0.18181818181818182
aF0.18181818181818182
aF0.18181818181818182
aF0.18181818181818182
aF0.18181818181818182
aF0.18181818181818182
aF0.18181818181818182
aF0.18181818181818182
aF0.18181818181818182
aF0.18181818181818182
aF0.18181818181818182
aF0.090909090909090912
aF0.090909090909090912
aF0.090909090909090912
aF0.090909090909090912
aF0.090909090909090912
aF0.090909090909090912
aF0.090909090909090912
aF0.090909090909090912
aF0.090909090909090912
aF0.090909090909090912
aF0.090909090909090912
aF0.090909090909090912
aF0.090909090909090912
aF0.090909090909090912
aF0.090909090909090912
aF0.090909090909090912
aF0.090909090909090912
aF0.090909090909090912
aF0.090909090909090912
aF0.090909090909090912
aF0.090909090909090912
aF0.090909090909090912
aF0.18181818181818182
aF0.090909090909090912
aF0.090909090909090912
aF0.090909090909090912
aF0.090909090909090912
aF0.090909090909090912
aF0.090909090909090912
aF0.090909090909090912
aF0.090909090909090912
aF0.090909090909090912
aF0.090909090909090912
aF0.090909090909090912
aF0.090909090909090912
aF0.090909090909090912
aF0.090909090909090912
aF0.090909090909090912
aF0.090909090909090912
aF0.18181818181818182
aF0.18181818181818182
aF0.090909090909090912
aF0.090909090909090912
aF0.090909090909090912
aF0.090909090909090912
aF0.090909090909090912
aF0.090909090909090912
aF0.090909090909090912
aF0.090909090909090912
aF0.090909090909090912
aF0.090909090909090912
aF0.090909090909090912
aF0.090909090909090912
aF0.090909090909090912
aF0.090909090909090912
aF0.090909090909090912
aF0.090909090909090912
aF0.090909090909090912
aF0.090909090909090912
aF0.090909090909090912
aF0.090909090909090912
aF0.090909090909090912
aF0.090909090909090912
aF0.090909090909090912
aF0.090909090909090912
aF0.090909090909090912
aF0.090909090909090912
aF0.090909090909090912
aF0.090909090909090912
aF0.090909090909090912
aF0.090909090909090912
aF0.090909090909090912
aF0.090909090909090912
aF0.090909090909090912
aF0.090909090909090912
aF0.090909090909090912
aF0.090909090909090912
aF0.090909090909090912
aF0.090909090909090912
aF0.18181818181818182
aF0.090909090909090912
aF0.090909090909090912
aF0.090909090909090912
aF0.090909090909090912
aF0.090909090909090912
aF0.090909090909090912
aF0.090909090909090912
aF0.090909090909090912
aF0.090909090909090912
aF0.090909090909090912
aF0.090909090909090912
aF0.090909090909090912
aF0.090909090909090912
aF0.090909090909090912
aF0.090909090909090912
aF0.090909090909090912
aF0.090909090909090912
aF0.090909090909090912
aF0.090909090909090912
aF0.090909090909090912
aF0.090909090909090912
aF0.090909090909090912
aF0.090909090909090912
aF0.090909090909090912
aF0.090909090909090912
aF0.090909090909090912
aF0.090909090909090912
aF0.090909090909090912
aF0.090909090909090912
aF0.090909090909090912
aF0.090909090909090912
aF0.090909090909090912
aF0.090909090909090912
aF0.090909090909090912
aF0.090909090909090912
aF0.090909090909090912
aF0.090909090909090912
aF0.090909090909090912
aF0.090909090909090912
aF0.090909090909090912
aF0.090909090909090912
aF0.090909090909090912
aF0.090909090909090912
aF0.090909090909090912
aF0.090909090909090912
aF0.090909090909090912
aF0.090909090909090912
aF0.090909090909090912
aF0.090909090909090912
aF0.090909090909090912
aF0.090909090909090912
aF0.090909090909090912
aF0.090909090909090912
aF0.090909090909090912
aF0.090909090909090912
aF0.090909090909090912
aF0.090909090909090912
aF0.090909090909090912
aF0.090909090909090912
aF0.090909090909090912
aF0.090909090909090912
aF0.090909090909090912
aF0.090909090909090912
aF0.090909090909090912
aF0.090909090909090912
aF0.090909090909090912
aF0.090909090909090912
aF0.090909090909090912
aF0.090909090909090912
aF0.090909090909090912
aF0.090909090909090912
aF0.090909090909090912
aF0.090909090909090912
aF0.090909090909090912
aF0.090909090909090912
aF0.090909090909090912
aF0.090909090909090912
aF0.18181818181818182
aF0.18181818181818182
aF0.090909090909090912
aF0.090909090909090912
aF0.090909090909090912
aF0.090909090909090912
aF0.090909090909090912
aF0.090909090909090912
aF0.090909090909090912
aF0.090909090909090912
aF0.090909090909090912
aF0.090909090909090912
aF0.090909090909090912
aF0.090909090909090912
aF0.090909090909090912
aF0.090909090909090912
aF0.090909090909090912
aF0.18181818181818182
aF0.18181818181818182
aF0.090909090909090912
aF0.090909090909090912
aF0.090909090909090912
aF0.090909090909090912
aF0.090909090909090912
aF0.090909090909090912
aF0.090909090909090912
aF0.090909090909090912
aF0.090909090909090912
aF0.090909090909090912
aF0.090909090909090912
aF0.090909090909090912
aF0.090909090909090912
aF0.090909090909090912
aF0.090909090909090912
aF0.090909090909090912
aF0.090909090909090912
aF0.090909090909090912
aF0.090909090909090912
aF0.090909090909090912
aF0.090909090909090912
aF0.090909090909090912
aF0.18181818181818182
aF0.090909090909090912
aF0.090909090909090912
aF0.090909090909090912
aF0.18181818181818182
aF0.090909090909090912
aF0.090909090909090912
aF0.090909090909090912
aF0.090909090909090912
aF0.090909090909090912
aF0.090909090909090912
aF0.090909090909090912
aF0.090909090909090912
aF0.090909090909090912
aF0.090909090909090912
aF0.090909090909090912
aF0.090909090909090912
aF0.090909090909090912
aF0.090909090909090912
aF0.27272727272727271
aF0.27272727272727271
aF0.090909090909090912
aF0.090909090909090912
aF0.090909090909090912
aF0.090909090909090912
aF0.090909090909090912
aF0.090909090909090912
aF0.090909090909090912
aF0.090909090909090912
aF0.090909090909090912
aF0.090909090909090912
aF0.090909090909090912
aF0.090909090909090912
aF0.090909090909090912
aF0.090909090909090912
aF0.090909090909090912
aF0.090909090909090912
aF0.090909090909090912
aF0.090909090909090912
aF0.090909090909090912
aF0.090909090909090912
aF0.090909090909090912
aF0.090909090909090912
aF0.090909090909090912
aF0.090909090909090912
aF0.090909090909090912
aF0.090909090909090912
aF0.090909090909090912
aF0.090909090909090912
aF0.090909090909090912
aF0.090909090909090912
aF0.090909090909090912
aF0.18181818181818182
aF0.090909090909090912
aF0.090909090909090912
aF0.090909090909090912
aF0.090909090909090912
aF0.090909090909090912
aF0.090909090909090912
aF0.090909090909090912
aF0.090909090909090912
aF0.090909090909090912
aF0.090909090909090912
aF0.090909090909090912
aF0.090909090909090912
aF0.090909090909090912
aF0.090909090909090912
aF0.090909090909090912
aF0.090909090909090912
aF0.090909090909090912
aF0.090909090909090912
aF0.090909090909090912
aF0.090909090909090912
aF0.090909090909090912
aF0.090909090909090912
aF0.090909090909090912
aF0.090909090909090912
aF0.090909090909090912
aF0.090909090909090912
aF0.090909090909090912
aF0.090909090909090912
aF0.090909090909090912
aF0.090909090909090912
aF0.090909090909090912
aF0.090909090909090912
aF0.090909090909090912
aF0.090909090909090912
aF0.090909090909090912
aF0.090909090909090912
aF0.090909090909090912
aF0.090909090909090912
aF0.090909090909090912
aF0.090909090909090912
aF0.090909090909090912
aF0.090909090909090912
aF0.090909090909090912
aF0.090909090909090912
aF0.090909090909090912
aF0.090909090909090912
aF0.090909090909090912
aF0.090909090909090912
aF0.090909090909090912
aF0.090909090909090912
aF0.090909090909090912
aF0.090909090909090912
aF0.090909090909090912
aF0.090909090909090912
aF0.090909090909090912
aF0.090909090909090912
aF0.090909090909090912
aF0.090909090909090912
aF0.090909090909090912
aF0.090909090909090912
aF0.090909090909090912
aF0.090909090909090912
aF0.090909090909090912
aF0.090909090909090912
aF0.090909090909090912
aF0.090909090909090912
aF0.090909090909090912
aF0.090909090909090912
aF0.090909090909090912
aF0.090909090909090912
aF0.090909090909090912
aF0.090909090909090912
aF0.090909090909090912
aF0.090909090909090912
aF0.090909090909090912
aF0.090909090909090912
aF0.090909090909090912
aF0.090909090909090912
aF0.090909090909090912
aF0.090909090909090912
aF0.090909090909090912
aF0.090909090909090912
aF0.090909090909090912
aF0.090909090909090912
aF0.090909090909090912
aF0.090909090909090912
aF0.090909090909090912
aF0.090909090909090912
aF0.090909090909090912
aF0.090909090909090912
aF0.090909090909090912
aF0.090909090909090912
aF0.090909090909090912
aF0.090909090909090912
aF0.090909090909090912
aF0.090909090909090912
aF0.090909090909090912
aF0.090909090909090912
aF0.090909090909090912
aF0.090909090909090912
aF0.090909090909090912
aF0.090909090909090912
aF0.090909090909090912
aF0.090909090909090912
aF0.090909090909090912
aF0.090909090909090912
aF0.090909090909090912
aF0.090909090909090912
aF0.090909090909090912
aF0.090909090909090912
aF0.090909090909090912
aF0.090909090909090912
aF0.090909090909090912
aF0.090909090909090912
aF0.090909090909090912
aF0.090909090909090912
aF0.090909090909090912
aF0.090909090909090912
aF0.090909090909090912
aF0.090909090909090912
aF0.090909090909090912
aF0.090909090909090912
aF0.090909090909090912
aF0.090909090909090912
aF0.090909090909090912
aF0.090909090909090912
aF0.090909090909090912
aF0.090909090909090912
aF0.18181818181818182
aF0.090909090909090912
aF0.090909090909090912
aF0.090909090909090912
aF0.090909090909090912
aF0.090909090909090912
aF0.090909090909090912
aF0.090909090909090912
aF0.090909090909090912
aF0.090909090909090912
aF0.090909090909090912
aF0.090909090909090912
aF0.090909090909090912
aF0.090909090909090912
aF0.090909090909090912
aF0.090909090909090912
aF0.090909090909090912
aF0.090909090909090912
aF0.18181818181818182
aF0.090909090909090912
aF0.090909090909090912
aF0.090909090909090912
aF0.090909090909090912
aF0.090909090909090912
aF0.090909090909090912
aF0.090909090909090912
aF0.090909090909090912
aF0.090909090909090912
aF0.090909090909090912
aF0.090909090909090912
aF0.090909090909090912
aF0.090909090909090912
aF0.090909090909090912
aF0.090909090909090912
aF0.18181818181818182
aF0.090909090909090912
aF0.090909090909090912
aF0.090909090909090912
aF0.090909090909090912
aF0.090909090909090912
aF0.090909090909090912
aF0.090909090909090912
aF0.090909090909090912
aF0.090909090909090912
aF0.090909090909090912
aF0.090909090909090912
aF0.090909090909090912
aF0.090909090909090912
aF0.090909090909090912
aF0.090909090909090912
aF0.090909090909090912
aF0.090909090909090912
aF0.090909090909090912
aF0.090909090909090912
aF0.090909090909090912
aF0.090909090909090912
aF0.090909090909090912
aF0.090909090909090912
aF0.090909090909090912
aF0.090909090909090912
aF0.090909090909090912
aF0.090909090909090912
aF0.090909090909090912
aF0.090909090909090912
aF0.090909090909090912
aF0.090909090909090912
aF0.090909090909090912
aF0.090909090909090912
aF0.090909090909090912
aF0.090909090909090912
aF0.090909090909090912
aF0.090909090909090912
aF0.090909090909090912
aF0.090909090909090912
aF0.090909090909090912
aF0.090909090909090912
aF0.090909090909090912
aF0.090909090909090912
aF0.090909090909090912
aF0.090909090909090912
aF0.090909090909090912
aF0.090909090909090912
aF0.090909090909090912
aF0.090909090909090912
aF0.090909090909090912
aF0.090909090909090912
aF0.090909090909090912
aF0.090909090909090912
aF0.18181818181818182
aF0.090909090909090912
aF0.090909090909090912
aF0.090909090909090912
aF0.090909090909090912
aF0.090909090909090912
aF0.090909090909090912
aF0.090909090909090912
aF0.090909090909090912
aF0.090909090909090912
aF0.090909090909090912
aF0.090909090909090912
aF0.090909090909090912
aF0.090909090909090912
aF0.090909090909090912
aF0.090909090909090912
aF0.090909090909090912
aF0.090909090909090912
aF0.090909090909090912
aF0.090909090909090912
aF0.090909090909090912
aF0.090909090909090912
aF0.090909090909090912
aF0.090909090909090912
aF0.090909090909090912
aF0.090909090909090912
aF0.090909090909090912
aF0.090909090909090912
aF0.090909090909090912
aF0.090909090909090912
aF0.090909090909090912
aF0.090909090909090912
aF0.090909090909090912
aF0.090909090909090912
aF0.090909090909090912
aF0.090909090909090912
aF0.18181818181818182
aF0.090909090909090912
aF0.090909090909090912
aF0.090909090909090912
aF0.090909090909090912
aF0.090909090909090912
aF0.090909090909090912
aF0.090909090909090912
aF0.090909090909090912
aF0.090909090909090912
aF0.090909090909090912
aF0.090909090909090912
aF0.090909090909090912
aF0.090909090909090912
aF0.090909090909090912
aF0.090909090909090912
aF0.090909090909090912
aF0.090909090909090912
aF0.090909090909090912
aF0.090909090909090912
aF0.090909090909090912
aF0.090909090909090912
aF0.090909090909090912
aF0.090909090909090912
aF0
aF0
aF0
aF0
aF0
aF0.090909090909090912
aF0
aF0.090909090909090912
aF0
a.