(lp1
(lp2
c__builtin__
set
p3
((lp4
S'2006065073'
p5
aS'2001063777'
p6
aS'1998399431'
p7
aS'197601634X'
p8
aS'2001318971'
p9
aS'2001275127'
p10
aS'1993095607'
p11
aS'2008G34124'
p12
aS'2001318964'
p13
aS'2003853323'
p14
aS'1996063282'
p15
aS'2006760998'
p16
atRp17
ag3
((ltRp18
aa(lp19
g3
((lp20
g5
ag6
ag7
ag8
ag9
ag10
ag11
ag12
ag13
ag14
ag15
ag16
atRp21
ag3
((ltRp22
aa(lp23
g3
((lp24
g5
ag6
ag7
ag8
ag9
ag10
ag11
ag12
ag13
ag14
ag15
ag16
atRp25
ag3
((ltRp26
aa(lp27
g3
((lp28
g5
ag6
ag7
ag8
ag9
ag10
ag11
ag12
ag13
ag14
ag15
ag16
atRp29
ag3
((ltRp30
aa(lp31
g3
((lp32
g5
ag6
ag7
ag8
ag9
ag10
ag11
ag12
ag13
ag14
ag15
ag16
atRp33
ag3
((ltRp34
aa(lp35
g3
((lp36
g5
ag6
ag7
ag8
ag9
ag10
ag11
ag12
ag13
ag14
ag15
ag16
atRp37
ag3
((ltRp38
aa(lp39
g3
((lp40
g5
ag6
ag7
ag8
ag9
ag10
ag11
ag12
ag13
ag14
ag15
ag16
atRp41
ag3
((ltRp42
aa(lp43
g3
((lp44
g5
ag6
ag7
ag8
ag9
ag10
ag11
ag12
ag13
ag14
ag15
ag16
atRp45
ag3
((ltRp46
aa(lp47
g3
((lp48
g5
ag6
ag7
ag8
ag9
ag10
ag11
ag12
ag13
ag14
ag15
ag16
atRp49
ag3
((ltRp50
aa(lp51
g3
((lp52
g5
ag6
ag7
ag8
ag9
ag10
ag11
ag12
ag13
ag14
ag15
ag16
atRp53
ag3
((ltRp54
aa(lp55
g3
((lp56
g5
ag6
ag7
ag8
ag9
ag10
ag11
ag12
ag13
ag14
ag15
ag16
atRp57
ag3
((ltRp58
aa(lp59
g3
((lp60
g5
ag6
ag7
ag8
ag9
ag10
ag11
ag12
ag13
ag14
ag15
ag16
atRp61
ag3
((ltRp62
aa(lp63
g3
((lp64
g5
ag6
ag7
ag8
ag9
ag10
ag11
ag12
ag13
ag14
ag15
ag16
atRp65
ag3
((ltRp66
aa(lp67
g3
((ltRp68
ag3
((lp69
S'2004238335'
p70
aS'1995044692'
p71
aS'1997254522'
p72
aS'2005495929'
p73
aS'2000372173'
p74
aS'1992080330'
p75
atRp76
aa(lp77
g3
((ltRp78
ag3
((lp79
g70
ag71
ag72
ag73
ag74
ag75
atRp80
aa(lp81
g3
((ltRp82
ag3
((lp83
g70
ag71
ag72
ag73
ag74
ag75
atRp84
aa(lp85
g3
((ltRp86
ag3
((lp87
g70
ag71
ag72
ag73
ag74
ag75
atRp88
aa(lp89
g3
((ltRp90
ag3
((lp91
g70
ag71
ag72
ag73
ag74
ag75
atRp92
aa(lp93
g3
((ltRp94
ag3
((lp95
g70
ag71
ag72
ag73
ag74
ag75
atRp96
aa(lp97
g3
((ltRp98
ag3
((lp99
g70
ag71
ag72
ag73
ag74
ag75
atRp100
aa(lp101
g3
((ltRp102
ag3
((lp103
g70
ag71
ag72
ag73
ag74
ag75
atRp104
aa(lp105
g3
((ltRp106
ag3
((lp107
g70
ag71
ag72
ag73
ag74
ag75
atRp108
aa(lp109
g3
((ltRp110
ag3
((lp111
g70
ag71
ag72
ag73
ag74
ag75
atRp112
aa(lp113
g3
((ltRp114
ag3
((lp115
g70
ag71
ag72
ag73
ag74
ag75
atRp116
aa(lp117
g3
((ltRp118
ag3
((lp119
g71
ag70
ag74
ag72
ag73
atRp120
aa(lp121
g3
((ltRp122
ag3
((lp123
g71
ag70
ag74
ag72
ag73
atRp124
aa(lp125
g3
((ltRp126
ag3
((lp127
g71
ag70
ag74
ag72
ag73
atRp128
aa(lp129
g3
((ltRp130
ag3
((lp131
g71
ag70
ag74
ag72
ag73
atRp132
aa(lp133
g3
((ltRp134
ag3
((lp135
g71
ag70
ag74
ag72
ag73
atRp136
aa(lp137
g3
((ltRp138
ag3
((lp139
g71
ag70
ag74
ag72
ag73
atRp140
aa(lp141
g3
((ltRp142
ag3
((lp143
g71
ag70
ag74
ag72
ag73
atRp144
aa(lp145
g3
((ltRp146
ag3
((lp147
g71
ag70
ag74
ag72
ag73
atRp148
aa(lp149
g3
((ltRp150
ag3
((lp151
g71
ag70
ag74
ag72
ag73
atRp152
aa(lp153
g3
((ltRp154
ag3
((lp155
g71
ag70
ag74
ag72
ag73
atRp156
aa(lp157
g3
((ltRp158
ag3
((lp159
g71
ag70
ag74
ag72
ag73
atRp160
aa(lp161
g3
((ltRp162
ag3
((lp163
g71
ag70
ag74
ag72
ag73
atRp164
aa(lp165
g3
((ltRp166
ag3
((lp167
g71
ag70
ag74
ag72
ag73
atRp168
aa(lp169
g3
((ltRp170
ag3
((lp171
g71
ag70
ag74
ag72
ag73
atRp172
aa(lp173
g3
((ltRp174
ag3
((lp175
g71
ag70
ag74
ag72
ag73
atRp176
aa(lp177
g3
((ltRp178
ag3
((lp179
g71
ag70
ag74
ag72
ag73
atRp180
aa(lp181
g3
((ltRp182
ag3
((lp183
g71
ag70
ag74
ag72
ag73
atRp184
aa(lp185
g3
((ltRp186
ag3
((lp187
g71
ag70
ag74
ag72
ag73
atRp188
aa(lp189
g3
((ltRp190
ag3
((lp191
g71
ag70
ag74
ag72
ag73
atRp192
aa(lp193
g3
((ltRp194
ag3
((lp195
g71
ag70
ag74
ag72
ag73
atRp196
aa(lp197
g3
((ltRp198
ag3
((lp199
g71
ag70
ag74
ag72
ag73
atRp200
aa(lp201
g3
((ltRp202
ag3
((lp203
g71
ag70
ag74
ag72
ag73
atRp204
aa(lp205
g3
((ltRp206
ag3
((lp207
g71
ag70
ag74
ag72
ag73
atRp208
aa(lp209
g3
((ltRp210
ag3
((lp211
g71
ag70
ag74
ag72
ag73
atRp212
aa(lp213
g3
((ltRp214
ag3
((lp215
g71
ag70
ag74
ag72
ag73
atRp216
aa(lp217
g3
((ltRp218
ag3
((lp219
g71
ag70
ag74
ag72
ag73
atRp220
aa(lp221
g3
((ltRp222
ag3
((lp223
g71
ag70
ag74
ag72
ag73
atRp224
aa(lp225
g3
((ltRp226
ag3
((lp227
g71
ag70
ag74
ag72
ag73
atRp228
aa(lp229
g3
((ltRp230
ag3
((lp231
g71
ag70
ag74
ag72
ag73
atRp232
aa(lp233
g3
((ltRp234
ag3
((lp235
g71
ag70
ag74
ag72
ag73
atRp236
aa(lp237
g3
((ltRp238
ag3
((lp239
g71
ag70
ag74
ag72
ag73
atRp240
aa(lp241
g3
((ltRp242
ag3
((lp243
g71
ag70
ag74
ag72
ag73
atRp244
aa(lp245
g3
((ltRp246
ag3
((lp247
g71
ag70
ag74
ag72
ag73
atRp248
aa(lp249
g3
((ltRp250
ag3
((lp251
g71
ag70
ag74
ag72
ag73
atRp252
aa(lp253
g3
((ltRp254
ag3
((lp255
g71
ag70
ag74
ag72
ag73
atRp256
aa(lp257
g3
((ltRp258
ag3
((lp259
g71
ag70
ag74
ag72
ag73
atRp260
aa(lp261
g3
((ltRp262
ag3
((lp263
g71
ag70
ag74
ag72
ag73
atRp264
aa(lp265
g3
((ltRp266
ag3
((lp267
g71
ag70
ag74
ag72
ag73
atRp268
aa(lp269
g3
((ltRp270
ag3
((lp271
g71
ag70
ag74
ag72
ag73
atRp272
aa(lp273
g3
((ltRp274
ag3
((lp275
g71
ag70
ag74
ag72
ag73
atRp276
aa(lp277
g3
((ltRp278
ag3
((lp279
g71
ag70
ag74
ag72
ag73
atRp280
aa(lp281
g3
((ltRp282
ag3
((lp283
g71
ag70
ag74
ag72
ag73
atRp284
aa(lp285
g3
((ltRp286
ag3
((lp287
g71
ag70
ag74
ag72
ag73
atRp288
aa(lp289
g3
((ltRp290
ag3
((lp291
g71
ag70
ag74
ag72
ag73
atRp292
aa(lp293
g3
((ltRp294
ag3
((lp295
g71
ag70
ag74
ag72
ag73
atRp296
aa(lp297
g3
((ltRp298
ag3
((lp299
g71
ag70
ag74
ag72
ag73
atRp300
aa(lp301
g3
((ltRp302
ag3
((lp303
g71
ag70
ag74
ag72
ag73
atRp304
aa(lp305
g3
((ltRp306
ag3
((lp307
g71
ag70
ag74
ag72
ag73
atRp308
aa(lp309
g3
((ltRp310
ag3
((lp311
g71
ag70
ag74
ag72
ag73
atRp312
aa(lp313
g3
((ltRp314
ag3
((lp315
g71
ag70
ag74
ag72
ag73
atRp316
aa(lp317
g3
((ltRp318
ag3
((lp319
g71
ag70
ag74
ag72
ag73
atRp320
aa(lp321
g3
((ltRp322
ag3
((lp323
g71
ag70
ag74
ag72
ag73
atRp324
aa(lp325
g3
((ltRp326
ag3
((lp327
g71
ag70
ag74
ag72
ag73
atRp328
aa(lp329
g3
((ltRp330
ag3
((lp331
g71
ag70
ag74
ag72
ag73
atRp332
aa(lp333
g3
((ltRp334
ag3
((lp335
g71
ag70
ag74
ag72
ag73
atRp336
aa(lp337
g3
((ltRp338
ag3
((lp339
g71
ag70
ag74
ag72
ag73
atRp340
aa(lp341
g3
((ltRp342
ag3
((lp343
g71
ag70
ag74
ag72
ag73
atRp344
aa(lp345
g3
((ltRp346
ag3
((lp347
g71
ag70
ag74
ag72
ag73
atRp348
aa(lp349
g3
((ltRp350
ag3
((lp351
g71
ag70
ag74
ag72
ag73
atRp352
aa(lp353
g3
((ltRp354
ag3
((lp355
g71
ag70
ag74
ag72
ag73
atRp356
aa(lp357
g3
((ltRp358
ag3
((lp359
g71
ag70
ag74
ag72
ag73
atRp360
aa(lp361
g3
((ltRp362
ag3
((lp363
g71
ag70
ag74
ag72
ag73
atRp364
aa(lp365
g3
((ltRp366
ag3
((lp367
g71
ag70
ag74
ag72
ag73
atRp368
aa(lp369
g3
((ltRp370
ag3
((lp371
g71
ag70
ag74
ag72
ag73
atRp372
aa(lp373
g3
((ltRp374
ag3
((lp375
g71
ag70
ag74
ag72
ag73
atRp376
aa(lp377
g3
((ltRp378
ag3
((lp379
g71
ag70
ag74
ag72
ag73
atRp380
aa(lp381
g3
((ltRp382
ag3
((lp383
g71
ag70
ag74
ag72
ag73
atRp384
aa(lp385
g3
((ltRp386
ag3
((lp387
g71
ag70
ag74
ag72
ag73
atRp388
aa(lp389
g3
((ltRp390
ag3
((lp391
g71
ag70
ag74
ag72
ag73
atRp392
aa(lp393
g3
((ltRp394
ag3
((lp395
g71
ag70
ag74
ag72
ag73
atRp396
aa(lp397
g3
((ltRp398
ag3
((lp399
g71
ag70
ag74
ag72
ag73
atRp400
aa(lp401
g3
((ltRp402
ag3
((lp403
g71
ag70
ag74
ag72
ag73
atRp404
aa(lp405
g3
((ltRp406
ag3
((lp407
g71
ag70
ag74
ag72
ag73
atRp408
aa(lp409
g3
((ltRp410
ag3
((lp411
g71
ag70
ag74
ag72
ag73
atRp412
aa(lp413
g3
((ltRp414
ag3
((lp415
g71
ag70
ag74
ag72
ag73
atRp416
aa(lp417
g3
((ltRp418
ag3
((lp419
g71
ag70
ag74
ag72
ag73
atRp420
aa(lp421
g3
((ltRp422
ag3
((lp423
g71
ag70
ag74
ag72
ag73
atRp424
aa(lp425
g3
((ltRp426
ag3
((lp427
g71
ag70
ag74
ag72
ag73
atRp428
aa(lp429
g3
((ltRp430
ag3
((lp431
g71
ag70
ag74
ag72
ag73
atRp432
aa(lp433
g3
((ltRp434
ag3
((lp435
g71
ag70
ag74
ag72
ag73
atRp436
aa(lp437
g3
((ltRp438
ag3
((lp439
g71
ag70
ag74
ag72
ag73
atRp440
aa(lp441
g3
((ltRp442
ag3
((lp443
g71
ag70
ag74
ag72
ag73
atRp444
aa(lp445
g3
((ltRp446
ag3
((lp447
g71
ag70
ag74
ag72
ag73
atRp448
aa(lp449
g3
((ltRp450
ag3
((lp451
g71
ag70
ag74
ag72
ag73
atRp452
aa(lp453
g3
((ltRp454
ag3
((lp455
g71
ag70
ag74
ag72
ag73
atRp456
aa(lp457
g3
((ltRp458
ag3
((lp459
g71
ag70
ag74
ag72
ag73
atRp460
aa(lp461
g3
((ltRp462
ag3
((lp463
g71
ag70
ag74
ag72
ag73
atRp464
aa(lp465
g3
((ltRp466
ag3
((lp467
g71
ag70
ag74
ag72
ag73
atRp468
aa(lp469
g3
((ltRp470
ag3
((lp471
g71
ag70
ag74
ag72
ag73
atRp472
aa(lp473
g3
((ltRp474
ag3
((lp475
g71
ag70
ag74
ag72
ag73
atRp476
aa(lp477
g3
((ltRp478
ag3
((lp479
g71
ag70
ag74
ag72
ag73
atRp480
aa(lp481
g3
((ltRp482
ag3
((lp483
g71
ag70
ag74
ag72
ag73
atRp484
aa(lp485
g3
((ltRp486
ag3
((lp487
g71
ag70
ag74
ag72
ag73
atRp488
aa(lp489
g3
((ltRp490
ag3
((lp491
g71
ag70
ag74
ag72
ag73
atRp492
aa(lp493
g3
((ltRp494
ag3
((lp495
g71
ag70
ag74
ag72
ag73
atRp496
aa(lp497
g3
((ltRp498
ag3
((lp499
g71
ag70
ag74
ag72
ag73
atRp500
aa(lp501
g3
((ltRp502
ag3
((lp503
g71
ag70
ag74
ag72
ag73
atRp504
aa(lp505
g3
((ltRp506
ag3
((lp507
g71
ag70
ag74
ag72
ag73
atRp508
aa(lp509
g3
((ltRp510
ag3
((lp511
g71
ag70
ag74
ag72
ag73
atRp512
aa(lp513
g3
((ltRp514
ag3
((lp515
g71
ag70
ag74
ag72
ag73
atRp516
aa(lp517
g3
((ltRp518
ag3
((lp519
g71
ag70
ag74
ag72
ag73
atRp520
aa(lp521
g3
((ltRp522
ag3
((lp523
g71
ag70
ag74
ag72
ag73
atRp524
aa(lp525
g3
((ltRp526
ag3
((lp527
g71
ag70
ag74
ag72
ag73
atRp528
aa(lp529
g3
((ltRp530
ag3
((lp531
g71
ag70
ag74
ag72
ag73
atRp532
aa(lp533
g3
((ltRp534
ag3
((lp535
g71
ag70
ag74
ag72
ag73
atRp536
aa(lp537
g3
((ltRp538
ag3
((lp539
g71
ag70
ag74
ag72
ag73
atRp540
aa(lp541
g3
((ltRp542
ag3
((lp543
g71
ag70
ag74
ag72
ag73
atRp544
aa(lp545
g3
((ltRp546
ag3
((lp547
g71
ag70
ag74
ag72
ag73
atRp548
aa(lp549
g3
((ltRp550
ag3
((lp551
g71
ag70
ag74
ag72
ag73
atRp552
aa(lp553
g3
((ltRp554
ag3
((lp555
g71
ag70
ag74
ag72
ag73
atRp556
aa(lp557
g3
((ltRp558
ag3
((lp559
g71
ag70
ag74
ag72
ag73
atRp560
aa(lp561
g3
((ltRp562
ag3
((lp563
g71
ag70
ag74
ag72
ag73
atRp564
aa(lp565
g3
((ltRp566
ag3
((lp567
g71
ag70
ag74
ag72
ag73
atRp568
aa(lp569
g3
((ltRp570
ag3
((lp571
g71
ag70
ag74
ag72
ag73
atRp572
aa(lp573
g3
((ltRp574
ag3
((lp575
g71
ag70
ag74
ag72
ag73
atRp576
aa(lp577
g3
((ltRp578
ag3
((lp579
g71
ag70
ag74
ag72
ag73
atRp580
aa(lp581
g3
((ltRp582
ag3
((lp583
g71
ag70
ag74
ag72
ag73
atRp584
aa(lp585
g3
((ltRp586
ag3
((lp587
g71
ag70
ag74
ag72
ag73
atRp588
aa(lp589
g3
((ltRp590
ag3
((lp591
g71
ag70
ag74
ag72
ag73
atRp592
aa(lp593
g3
((ltRp594
ag3
((lp595
g71
ag70
ag74
ag72
ag73
atRp596
aa(lp597
g3
((ltRp598
ag3
((lp599
g71
ag70
ag74
ag72
ag73
atRp600
aa(lp601
g3
((ltRp602
ag3
((lp603
g71
ag70
ag74
ag72
ag73
atRp604
aa(lp605
g3
((ltRp606
ag3
((lp607
g71
ag70
ag74
ag72
ag73
atRp608
aa(lp609
g3
((ltRp610
ag3
((lp611
g71
ag70
ag74
ag72
ag73
atRp612
aa(lp613
g3
((ltRp614
ag3
((lp615
g71
ag70
ag74
ag72
ag73
atRp616
aa(lp617
g3
((ltRp618
ag3
((lp619
g71
ag70
ag74
ag72
ag73
atRp620
aa(lp621
g3
((ltRp622
ag3
((lp623
g71
ag70
ag74
ag72
ag73
atRp624
aa(lp625
g3
((ltRp626
ag3
((lp627
g71
ag70
ag74
ag72
ag73
atRp628
aa(lp629
g3
((ltRp630
ag3
((lp631
g71
ag70
ag74
ag72
ag73
atRp632
aa(lp633
g3
((ltRp634
ag3
((lp635
g71
ag70
ag74
ag72
ag73
atRp636
aa(lp637
g3
((ltRp638
ag3
((lp639
g71
ag70
ag74
ag72
ag73
atRp640
aa(lp641
g3
((ltRp642
ag3
((lp643
g71
ag70
ag74
ag72
ag73
atRp644
aa(lp645
g3
((ltRp646
ag3
((lp647
g71
ag70
ag74
ag72
ag73
atRp648
aa(lp649
g3
((ltRp650
ag3
((lp651
g71
ag70
ag74
ag72
ag73
atRp652
aa(lp653
g3
((ltRp654
ag3
((lp655
g71
ag70
ag74
ag72
ag73
atRp656
aa(lp657
g3
((ltRp658
ag3
((lp659
g71
ag70
ag74
ag72
ag73
atRp660
aa(lp661
g3
((ltRp662
ag3
((lp663
g71
ag70
ag74
ag72
ag73
atRp664
aa(lp665
g3
((ltRp666
ag3
((lp667
g71
ag70
ag74
ag72
ag73
atRp668
aa(lp669
g3
((ltRp670
ag3
((lp671
g71
ag70
ag74
ag72
ag73
atRp672
aa(lp673
g3
((ltRp674
ag3
((lp675
g71
ag70
ag74
ag72
ag73
atRp676
aa(lp677
g3
((ltRp678
ag3
((lp679
g71
ag70
ag74
ag72
ag73
atRp680
aa(lp681
g3
((ltRp682
ag3
((lp683
g71
ag70
ag74
ag72
ag73
atRp684
aa(lp685
g3
((ltRp686
ag3
((lp687
g71
ag70
ag74
ag72
ag73
atRp688
aa(lp689
g3
((ltRp690
ag3
((lp691
g71
ag70
ag74
ag72
ag73
atRp692
aa(lp693
g3
((ltRp694
ag3
((lp695
g71
ag70
ag74
ag72
ag73
atRp696
aa(lp697
g3
((ltRp698
ag3
((lp699
g71
ag70
ag74
ag72
ag73
atRp700
aa(lp701
g3
((ltRp702
ag3
((lp703
g71
ag70
ag74
ag72
ag73
atRp704
aa(lp705
g3
((ltRp706
ag3
((lp707
g71
ag70
ag74
ag72
ag73
atRp708
aa(lp709
g3
((ltRp710
ag3
((lp711
g71
ag70
ag74
ag72
ag73
atRp712
aa(lp713
g3
((ltRp714
ag3
((lp715
g71
ag70
ag74
ag72
ag73
atRp716
aa(lp717
g3
((ltRp718
ag3
((lp719
g71
ag70
ag74
ag72
ag73
atRp720
aa(lp721
g3
((ltRp722
ag3
((lp723
g71
ag70
ag74
ag72
ag73
atRp724
aa(lp725
g3
((ltRp726
ag3
((lp727
g71
ag70
ag74
ag72
ag73
atRp728
aa(lp729
g3
((ltRp730
ag3
((lp731
g71
ag70
ag74
ag72
ag73
atRp732
aa(lp733
g3
((ltRp734
ag3
((lp735
g71
ag70
ag74
ag72
ag73
atRp736
aa(lp737
g3
((ltRp738
ag3
((lp739
g71
ag70
ag74
ag72
ag73
atRp740
aa(lp741
g3
((ltRp742
ag3
((lp743
g71
ag70
ag74
ag72
ag73
atRp744
aa(lp745
g3
((ltRp746
ag3
((lp747
g71
ag70
ag74
ag72
ag73
atRp748
aa(lp749
g3
((ltRp750
ag3
((lp751
g71
ag70
ag74
ag72
ag73
atRp752
aa(lp753
g3
((ltRp754
ag3
((lp755
g71
ag70
ag74
ag72
ag73
atRp756
aa(lp757
g3
((ltRp758
ag3
((lp759
g71
ag70
ag74
ag72
ag73
atRp760
aa(lp761
g3
((ltRp762
ag3
((lp763
g71
ag70
ag74
ag72
ag73
atRp764
aa(lp765
g3
((ltRp766
ag3
((lp767
g71
ag70
ag74
ag72
ag73
atRp768
aa(lp769
g3
((ltRp770
ag3
((lp771
g71
ag70
ag74
ag72
ag73
atRp772
aa(lp773
g3
((ltRp774
ag3
((lp775
g71
ag70
ag74
ag72
ag73
atRp776
aa(lp777
g3
((ltRp778
ag3
((lp779
g71
ag70
ag74
ag72
ag73
atRp780
aa(lp781
g3
((ltRp782
ag3
((lp783
g71
ag70
ag74
ag72
ag73
atRp784
aa(lp785
g3
((ltRp786
ag3
((lp787
g71
ag70
ag74
ag72
ag73
atRp788
aa(lp789
g3
((ltRp790
ag3
((lp791
g71
ag70
ag74
ag72
ag73
atRp792
aa(lp793
g3
((ltRp794
ag3
((lp795
g71
ag70
ag74
ag72
ag73
atRp796
aa(lp797
g3
((ltRp798
ag3
((lp799
g71
ag70
ag74
ag72
ag73
atRp800
aa(lp801
g3
((ltRp802
ag3
((lp803
g71
ag70
ag74
ag72
ag73
atRp804
aa(lp805
g3
((ltRp806
ag3
((lp807
g71
ag70
ag74
ag72
ag73
atRp808
aa(lp809
g3
((ltRp810
ag3
((lp811
g71
ag70
ag74
ag72
ag73
atRp812
aa(lp813
g3
((ltRp814
ag3
((lp815
g71
ag70
ag74
ag72
ag73
atRp816
aa(lp817
g3
((ltRp818
ag3
((lp819
g71
ag70
ag74
ag72
ag73
atRp820
aa.